LIBRARY Engine
EXPORTS
 ??0AActor@@QAE@ABV0@@Z
 ??0AActor@@QAE@XZ
 ??0ABrush@@QAE@ABV0@@Z
 ??0ABrush@@QAE@XZ
 ??0AButtonMarker@@IAE@XZ
 ??0AButtonMarker@@QAE@ABV0@@Z
 ??0ACTVE_BeamFX@@IAE@XZ
 ??0ACTVE_BeamFX@@QAE@ABV0@@Z
 ??0ACTVE_Camera@@IAE@XZ
 ??0ACTVE_Camera@@QAE@ABV0@@Z
 ??0ACTVE_ChainSpark@@QAE@ABV0@@Z
 ??0ACTVE_ChainSpark@@QAE@XZ
 ??0ACTVE_Commander@@IAE@XZ
 ??0ACTVE_Commander@@QAE@ABV0@@Z
 ??0ACTVE_Dialog@@QAE@ABV0@@Z
 ??0ACTVE_Dialog@@QAE@XZ
 ??0ACTVE_DialogInput@@QAE@ABV0@@Z
 ??0ACTVE_DialogInput@@QAE@XZ
 ??0ACTVE_Director@@IAE@XZ
 ??0ACTVE_Director@@QAE@ABV0@@Z
 ??0ACTVE_Document@@QAE@ABV0@@Z
 ??0ACTVE_Document@@QAE@XZ
 ??0ACTVE_EXP_Smoke@@IAE@XZ
 ??0ACTVE_EXP_Smoke@@QAE@ABV0@@Z
 ??0ACTVE_Engine@@IAE@XZ
 ??0ACTVE_Engine@@QAE@ABV0@@Z
 ??0ACTVE_Generator@@IAE@XZ
 ??0ACTVE_Generator@@QAE@ABV0@@Z
 ??0ACTVE_Hud@@QAE@ABV0@@Z
 ??0ACTVE_Hud@@QAE@XZ
 ??0ACTVE_InterpolationPoint@@IAE@XZ
 ??0ACTVE_InterpolationPoint@@QAE@ABV0@@Z
 ??0ACTVE_NavigationAssist@@IAE@XZ
 ??0ACTVE_NavigationAssist@@QAE@ABV0@@Z
 ??0ACTVE_Particle@@IAE@XZ
 ??0ACTVE_Particle@@QAE@ABV0@@Z
 ??0ACTVE_Pawn@@QAE@ABV0@@Z
 ??0ACTVE_Pawn@@QAE@XZ
 ??0ACTVE_PlayerPawn@@QAE@ABV0@@Z
 ??0ACTVE_PlayerPawn@@QAE@XZ
 ??0ACTVE_PlayerStart@@IAE@XZ
 ??0ACTVE_PlayerStart@@QAE@ABV0@@Z
 ??0ACTVE_RenderConstraint@@IAE@XZ
 ??0ACTVE_RenderConstraint@@QAE@ABV0@@Z
 ??0ACTVE_Sparks@@QAE@ABV0@@Z
 ??0ACTVE_Sparks@@QAE@XZ
 ??0ACTVE_Spline@@QAE@ABV0@@Z
 ??0ACTVE_Spline@@QAE@XZ
 ??0ACTVE_Sprite@@IAE@XZ
 ??0ACTVE_Sprite@@QAE@ABV0@@Z
 ??0ACTVE_Tangent@@IAE@XZ
 ??0ACTVE_Tangent@@QAE@ABV0@@Z
 ??0ACTVE_TricorderInfo@@IAE@XZ
 ??0ACTVE_TricorderInfo@@QAE@ABV0@@Z
 ??0ACTVE_Weather@@QAE@ABV0@@Z
 ??0ACTVE_Weather@@QAE@XZ
 ??0ACamera@@QAE@ABV0@@Z
 ??0ACamera@@QAE@XZ
 ??0ACarcass@@IAE@XZ
 ??0ACarcass@@QAE@ABV0@@Z
 ??0ADecal@@IAE@XZ
 ??0ADecal@@QAE@ABV0@@Z
 ??0ADecoration@@IAE@XZ
 ??0ADecoration@@QAE@ABV0@@Z
 ??0AEffects@@IAE@XZ
 ??0AEffects@@QAE@ABV0@@Z
 ??0AGameInfo@@IAE@XZ
 ??0AGameInfo@@QAE@ABV0@@Z
 ??0AGameReplicationInfo@@QAE@ABV0@@Z
 ??0AGameReplicationInfo@@QAE@XZ
 ??0AHUD@@IAE@XZ
 ??0AHUD@@QAE@ABV0@@Z
 ??0AInfo@@IAE@XZ
 ??0AInfo@@QAE@ABV0@@Z
 ??0AInternetInfo@@IAE@XZ
 ??0AInternetInfo@@QAE@ABV0@@Z
 ??0AInterpolationPoint@@IAE@XZ
 ??0AInterpolationPoint@@QAE@ABV0@@Z
 ??0AInventory@@QAE@ABV0@@Z
 ??0AInventory@@QAE@XZ
 ??0AInventorySpot@@IAE@XZ
 ??0AInventorySpot@@QAE@ABV0@@Z
 ??0AKeypoint@@IAE@XZ
 ??0AKeypoint@@QAE@ABV0@@Z
 ??0ALevelInfo@@IAE@XZ
 ??0ALevelInfo@@QAE@ABV0@@Z
 ??0ALiftCenter@@IAE@XZ
 ??0ALiftCenter@@QAE@ABV0@@Z
 ??0ALiftExit@@IAE@XZ
 ??0ALiftExit@@QAE@ABV0@@Z
 ??0ALight@@IAE@XZ
 ??0ALight@@QAE@ABV0@@Z
 ??0AMenu@@IAE@XZ
 ??0AMenu@@QAE@ABV0@@Z
 ??0AMover@@QAE@ABV0@@Z
 ??0AMover@@QAE@XZ
 ??0AMutator@@IAE@XZ
 ??0AMutator@@QAE@ABV0@@Z
 ??0ANavigationPoint@@IAE@XZ
 ??0ANavigationPoint@@QAE@ABV0@@Z
 ??0APathNode@@IAE@XZ
 ??0APathNode@@QAE@ABV0@@Z
 ??0APawn@@QAE@ABV0@@Z
 ??0APawn@@QAE@XZ
 ??0APlayerPawn@@QAE@ABV0@@Z
 ??0APlayerPawn@@QAE@XZ
 ??0APlayerReplicationInfo@@QAE@ABV0@@Z
 ??0APlayerReplicationInfo@@QAE@XZ
 ??0APlayerStart@@IAE@XZ
 ??0APlayerStart@@QAE@ABV0@@Z
 ??0AProjectile@@IAE@XZ
 ??0AProjectile@@QAE@ABV0@@Z
 ??0AReplicationInfo@@IAE@XZ
 ??0AReplicationInfo@@QAE@ABV0@@Z
 ??0ASavedMove@@IAE@XZ
 ??0ASavedMove@@QAE@ABV0@@Z
 ??0AScout@@IAE@XZ
 ??0AScout@@QAE@ABV0@@Z
 ??0ASkyZoneInfo@@IAE@XZ
 ??0ASkyZoneInfo@@QAE@ABV0@@Z
 ??0ASpecialEvent@@IAE@XZ
 ??0ASpecialEvent@@QAE@ABV0@@Z
 ??0AStatLog@@IAE@XZ
 ??0AStatLog@@QAE@ABV0@@Z
 ??0AStatLogFile@@IAE@XZ
 ??0AStatLogFile@@QAE@ABV0@@Z
 ??0ATeleporter@@IAE@XZ
 ??0ATeleporter@@QAE@ABV0@@Z
 ??0ATimeDemo@@IAE@XZ
 ??0ATimeDemo@@QAE@ABV0@@Z
 ??0ATrigger@@IAE@XZ
 ??0ATrigger@@QAE@ABV0@@Z
 ??0ATriggerLight@@IAE@XZ
 ??0ATriggerLight@@QAE@ABV0@@Z
 ??0ATriggerMarker@@IAE@XZ
 ??0ATriggerMarker@@QAE@ABV0@@Z
 ??0ATriggers@@IAE@XZ
 ??0ATriggers@@QAE@ABV0@@Z
 ??0AWarpZoneInfo@@IAE@XZ
 ??0AWarpZoneInfo@@QAE@ABV0@@Z
 ??0AWarpZoneMarker@@IAE@XZ
 ??0AWarpZoneMarker@@QAE@ABV0@@Z
 ??0AWeapon@@IAE@XZ
 ??0AWeapon@@QAE@ABV0@@Z
 ??0AZoneInfo@@QAE@ABV0@@Z
 ??0AZoneInfo@@QAE@XZ
 ??0Alocationid@@IAE@XZ
 ??0Alocationid@@QAE@ABV0@@Z
 ??0FActorNode@@QAE@XZ
 ??0FAudioTracker@@QAE@ABV0@@Z
 ??0FAudioTracker@@QAE@XZ
 ??0FCollisionHash@@QAE@ABV0@@Z
 ??0FCollisionHash@@QAE@XZ
 ??0FColor@@QAE@ABVFPlane@@@Z
 ??0FColor@@QAE@EEE@Z
 ??0FColor@@QAE@EEEE@Z
 ??0FColor@@QAE@XZ
 ??0FFontPage@@QAE@ABU0@@Z
 ??0FFontPage@@QAE@XZ
 ??0FHitCause@@QAE@PAVFHitObserver@@PAVUViewport@@KMM@Z
 ??0FHitObserver@@QAE@ABV0@@Z
 ??0FHitObserver@@QAE@XZ
 ??0FInBunch@@QAE@ABV0@@Z
 ??0FInBunch@@QAE@PAVUNetConnection@@@Z
 ??0FLightMapIndex@@QAE@XZ
 ??0FMipmap@@QAE@ABU0@@Z
 ??0FMipmap@@QAE@EE@Z
 ??0FMipmap@@QAE@EEH@Z
 ??0FMipmap@@QAE@XZ
 ??0FMipmapBase@@QAE@EE@Z
 ??0FMipmapBase@@QAE@XZ
 ??0FNetworkNotify@@QAE@ABV0@@Z
 ??0FNetworkNotify@@QAE@XZ
 ??0FOutBunch@@QAE@ABV0@@Z
 ??0FOutBunch@@QAE@PAVUChannel@@H@Z
 ??0FOutBunch@@QAE@XZ
 ??0FPointRegion@@QAE@PAVAZoneInfo@@@Z
 ??0FPointRegion@@QAE@PAVAZoneInfo@@HE@Z
 ??0FPointRegion@@QAE@XZ
 ??0FPoly@@QAE@XZ
 ??0FSceneNode@@QAE@ABU0@@Z
 ??0FSceneNode@@QAE@XZ
 ??0FShadowMask@@QAE@ABV0@@Z
 ??0FShadowMask@@QAE@XZ
 ??0FSoundData@@QAE@ABV0@@Z
 ??0FSoundData@@QAE@PAVUSound@@@Z
 ??0FTextureInfo@@QAE@XZ
 ??0FURL@@QAE@ABV0@@Z
 ??0FURL@@QAE@PAV0@PBDW4ETravelType@@@Z
 ??0FURL@@QAE@PBD@Z
 ??0FWeatherBlockStruct@@QAE@XZ
 ??0HActor@@QAE@ABU0@@Z
 ??0HActor@@QAE@PAVAActor@@@Z
 ??0HBspSurf@@QAE@ABU0@@Z
 ??0HBspSurf@@QAE@H@Z
 ??0HCoords@@QAE@ABU0@@Z
 ??0HCoords@@QAE@PAUFSceneNode@@@Z
 ??0HHitProxy@@QAE@ABU0@@Z
 ??0HHitProxy@@QAE@XZ
 ??0UActorChannel@@QAE@ABV0@@Z
 ??0UActorChannel@@QAE@XZ
 ??0UAudioSubsystem@@IAE@XZ
 ??0UAudioSubsystem@@QAE@ABV0@@Z
 ??0UBitmap@@QAE@ABV0@@Z
 ??0UBitmap@@QAE@XZ
 ??0UBspNodes@@QAE@ABV0@@Z
 ??0UBspNodes@@QAE@XZ
 ??0UBspSurfs@@QAE@ABV0@@Z
 ??0UBspSurfs@@QAE@XZ
 ??0UC3DFLIC@@QAE@ABV0@@Z
 ??0UC3DFLIC@@QAE@XZ
 ??0UC3DMESHSTATE@@QAE@ABV0@@Z
 ??0UC3DMESHSTATE@@QAE@XZ
 ??0UCTVE_DllObject@@QAE@ABV0@@Z
 ??0UCTVE_DllObject@@QAE@XZ
 ??0UCTVE_MultiMesh@@QAE@ABV0@@Z
 ??0UCTVE_MultiMesh@@QAE@XZ
 ??0UCanvas@@IAE@XZ
 ??0UCanvas@@QAE@ABV0@@Z
 ??0UChannel@@QAE@ABV0@@Z
 ??0UChannel@@QAE@XZ
 ??0UClient@@QAE@ABV0@@Z
 ??0UClient@@QAE@XZ
 ??0UConsole@@QAE@ABV0@@Z
 ??0UConsole@@QAE@XZ
 ??0UControlChannel@@QAE@ABV0@@Z
 ??0UControlChannel@@QAE@XZ
 ??0UDemoRecConnection@@IAE@XZ
 ??0UDemoRecConnection@@QAE@ABV0@@Z
 ??0UDemoRecConnection@@QAE@PAVUNetDriver@@ABVFURL@@@Z
 ??0UDemoRecDriver@@QAE@ABV0@@Z
 ??0UDemoRecDriver@@QAE@XZ
 ??0UEngine@@QAE@ABV0@@Z
 ??0UEngine@@QAE@XZ
 ??0UFileChannel@@QAE@ABV0@@Z
 ??0UFileChannel@@QAE@XZ
 ??0UFliTexture@@QAE@ABV0@@Z
 ??0UFliTexture@@QAE@XZ
 ??0UFont@@QAE@ABV0@@Z
 ??0UFont@@QAE@XZ
 ??0UGameEngine@@QAE@ABV0@@Z
 ??0UGameEngine@@QAE@XZ
 ??0UInput@@QAE@ABV0@@Z
 ??0UInput@@QAE@XZ
 ??0ULevel@@IAE@XZ
 ??0ULevel@@QAE@ABV0@@Z
 ??0ULevel@@QAE@PAVUEngine@@H@Z
 ??0ULevelBase@@IAE@XZ
 ??0ULevelBase@@QAE@ABV0@@Z
 ??0ULevelBase@@QAE@PAVUEngine@@ABVFURL@@@Z
 ??0ULevelSummary@@QAE@ABV0@@Z
 ??0ULevelSummary@@QAE@XZ
 ??0ULodMesh@@QAE@ABV0@@Z
 ??0ULodMesh@@QAE@HHH@Z
 ??0ULodMesh@@QAE@XZ
 ??0UMesh@@QAE@ABV0@@Z
 ??0UMesh@@QAE@HHH@Z
 ??0UMesh@@QAE@XZ
 ??0UModel@@QAE@ABV0@@Z
 ??0UModel@@QAE@PAVABrush@@H@Z
 ??0UModel@@QAE@XZ
 ??0UMusic@@QAE@ABV0@@Z
 ??0UMusic@@QAE@XZ
 ??0UNetConnection@@QAE@ABV0@@Z
 ??0UNetConnection@@QAE@PAVUNetDriver@@ABVFURL@@@Z
 ??0UNetConnection@@QAE@XZ
 ??0UNetDriver@@QAE@ABV0@@Z
 ??0UNetDriver@@QAE@XZ
 ??0UPackageMapLevel@@QAE@ABV0@@Z
 ??0UPackageMapLevel@@QAE@PAVUNetConnection@@@Z
 ??0UPackageMapLevel@@QAE@XZ
 ??0UPalette@@QAE@ABV0@@Z
 ??0UPalette@@QAE@XZ
 ??0UPlayer@@QAE@ABV0@@Z
 ??0UPlayer@@QAE@XZ
 ??0UPolys@@QAE@ABV0@@Z
 ??0UPolys@@QAE@XZ
 ??0UPrimitive@@QAE@ABV0@@Z
 ??0UPrimitive@@QAE@XZ
 ??0URenderBase@@IAE@XZ
 ??0URenderBase@@QAE@ABV0@@Z
 ??0URenderDevice@@QAE@ABV0@@Z
 ??0URenderDevice@@QAE@XZ
 ??0URenderIterator@@QAE@ABV0@@Z
 ??0URenderIterator@@QAE@XZ
 ??0UScriptedTexture@@QAE@ABV0@@Z
 ??0UScriptedTexture@@QAE@XZ
 ??0USound@@QAE@ABV0@@Z
 ??0USound@@QAE@XZ
 ??0UTexture@@QAE@ABV0@@Z
 ??0UTexture@@QAE@XZ
 ??0UVectors@@QAE@ABV0@@Z
 ??0UVectors@@QAE@XZ
 ??0UVerts@@QAE@ABV0@@Z
 ??0UVerts@@QAE@XZ
 ??0UViewport@@QAE@ABV0@@Z
 ??0UViewport@@QAE@XZ
 ??1AActor@@UAE@XZ
 ??1ABrush@@UAE@XZ
 ??1AButtonMarker@@UAE@XZ
 ??1ACTVE_BeamFX@@UAE@XZ
 ??1ACTVE_Camera@@UAE@XZ
 ??1ACTVE_ChainSpark@@UAE@XZ
 ??1ACTVE_Commander@@UAE@XZ
 ??1ACTVE_Dialog@@UAE@XZ
 ??1ACTVE_DialogInput@@UAE@XZ
 ??1ACTVE_Director@@UAE@XZ
 ??1ACTVE_Document@@UAE@XZ
 ??1ACTVE_EXP_Smoke@@UAE@XZ
 ??1ACTVE_Engine@@UAE@XZ
 ??1ACTVE_Generator@@UAE@XZ
 ??1ACTVE_Hud@@UAE@XZ
 ??1ACTVE_InterpolationPoint@@UAE@XZ
 ??1ACTVE_NavigationAssist@@UAE@XZ
 ??1ACTVE_Particle@@UAE@XZ
 ??1ACTVE_Pawn@@UAE@XZ
 ??1ACTVE_PlayerPawn@@UAE@XZ
 ??1ACTVE_PlayerStart@@UAE@XZ
 ??1ACTVE_RenderConstraint@@UAE@XZ
 ??1ACTVE_Sparks@@UAE@XZ
 ??1ACTVE_Spline@@UAE@XZ
 ??1ACTVE_Sprite@@UAE@XZ
 ??1ACTVE_Tangent@@UAE@XZ
 ??1ACTVE_TricorderInfo@@UAE@XZ
 ??1ACTVE_Weather@@UAE@XZ
 ??1ACamera@@UAE@XZ
 ??1ACarcass@@UAE@XZ
 ??1ADecal@@UAE@XZ
 ??1ADecoration@@UAE@XZ
 ??1AEffects@@UAE@XZ
 ??1AGameInfo@@UAE@XZ
 ??1AGameReplicationInfo@@UAE@XZ
 ??1AHUD@@UAE@XZ
 ??1AInfo@@UAE@XZ
 ??1AInternetInfo@@UAE@XZ
 ??1AInterpolationPoint@@UAE@XZ
 ??1AInventory@@UAE@XZ
 ??1AInventorySpot@@UAE@XZ
 ??1AKeypoint@@UAE@XZ
 ??1ALevelInfo@@UAE@XZ
 ??1ALiftCenter@@UAE@XZ
 ??1ALiftExit@@UAE@XZ
 ??1ALight@@UAE@XZ
 ??1AMenu@@UAE@XZ
 ??1AMover@@UAE@XZ
 ??1AMutator@@UAE@XZ
 ??1ANavigationPoint@@UAE@XZ
 ??1APathNode@@UAE@XZ
 ??1APawn@@UAE@XZ
 ??1APlayerPawn@@UAE@XZ
 ??1APlayerReplicationInfo@@UAE@XZ
 ??1APlayerStart@@UAE@XZ
 ??1AProjectile@@UAE@XZ
 ??1AReplicationInfo@@UAE@XZ
 ??1ASavedMove@@UAE@XZ
 ??1AScout@@UAE@XZ
 ??1ASkyZoneInfo@@UAE@XZ
 ??1ASpecialEvent@@UAE@XZ
 ??1AStatLog@@UAE@XZ
 ??1AStatLogFile@@UAE@XZ
 ??1ATeleporter@@UAE@XZ
 ??1ATimeDemo@@UAE@XZ
 ??1ATrigger@@UAE@XZ
 ??1ATriggerLight@@UAE@XZ
 ??1ATriggerMarker@@UAE@XZ
 ??1ATriggers@@UAE@XZ
 ??1AWarpZoneInfo@@UAE@XZ
 ??1AWarpZoneMarker@@UAE@XZ
 ??1AWeapon@@UAE@XZ
 ??1AZoneInfo@@UAE@XZ
 ??1Alocationid@@UAE@XZ
 ??1FActorNode@@QAE@XZ
 ??1FAudioTracker@@QAE@XZ
 ??1FCollisionHash@@UAE@XZ
 ??1FFontPage@@QAE@XZ
 ??1FInBunch@@UAE@XZ
 ??1FMipmap@@QAE@XZ
 ??1FOutBunch@@UAE@XZ
 ??1FShadowMask@@QAE@XZ
 ??1FSoundData@@QAE@XZ
 ??1FURL@@QAE@XZ
 ??1UActorChannel@@UAE@XZ
 ??1UAudioSubsystem@@UAE@XZ
 ??1UBitmap@@UAE@XZ
 ??1UBspNodes@@UAE@XZ
 ??1UBspSurfs@@UAE@XZ
 ??1UC3DFLIC@@UAE@XZ
 ??1UC3DMESHSTATE@@UAE@XZ
 ??1UCTVE_DllObject@@UAE@XZ
 ??1UCTVE_MultiMesh@@UAE@XZ
 ??1UCanvas@@UAE@XZ
 ??1UChannel@@UAE@XZ
 ??1UClient@@UAE@XZ
 ??1UConsole@@UAE@XZ
 ??1UControlChannel@@UAE@XZ
 ??1UDemoRecConnection@@UAE@XZ
 ??1UDemoRecDriver@@UAE@XZ
 ??1UEngine@@UAE@XZ
 ??1UFileChannel@@UAE@XZ
 ??1UFliTexture@@UAE@XZ
 ??1UFont@@UAE@XZ
 ??1UGameEngine@@UAE@XZ
 ??1UInput@@UAE@XZ
 ??1ULevel@@UAE@XZ
 ??1ULevelBase@@UAE@XZ
 ??1ULevelSummary@@UAE@XZ
 ??1ULodMesh@@UAE@XZ
 ??1UMesh@@UAE@XZ
 ??1UModel@@UAE@XZ
 ??1UMusic@@UAE@XZ
 ??1UNetConnection@@UAE@XZ
 ??1UNetDriver@@UAE@XZ
 ??1UPackageMapLevel@@UAE@XZ
 ??1UPalette@@UAE@XZ
 ??1UPlayer@@UAE@XZ
 ??1UPolys@@UAE@XZ
 ??1UPrimitive@@UAE@XZ
 ??1URenderBase@@UAE@XZ
 ??1URenderDevice@@UAE@XZ
 ??1URenderIterator@@UAE@XZ
 ??1UScriptedTexture@@UAE@XZ
 ??1USound@@UAE@XZ
 ??1UTexture@@UAE@XZ
 ??1UVectors@@UAE@XZ
 ??1UVerts@@UAE@XZ
 ??1UViewport@@UAE@XZ
 ??2AActor@@SAPAXIPAVUObject@@VFName@@K@Z
 ??2AActor@@SAPAXIPAW4EInternal@@@Z
 ??2ABrush@@SAPAXIPAVUObject@@VFName@@K@Z
 ??2ABrush@@SAPAXIPAW4EInternal@@@Z
 ??2AButtonMarker@@SAPAXIPAVUObject@@VFName@@K@Z
 ??2AButtonMarker@@SAPAXIPAW4EInternal@@@Z
 ??2ACTVE_BeamFX@@SAPAXIPAVUObject@@VFName@@K@Z
 ??2ACTVE_BeamFX@@SAPAXIPAW4EInternal@@@Z
 ??2ACTVE_Camera@@SAPAXIPAVUObject@@VFName@@K@Z
 ??2ACTVE_Camera@@SAPAXIPAW4EInternal@@@Z
 ??2ACTVE_ChainSpark@@SAPAXIPAVUObject@@VFName@@K@Z
 ??2ACTVE_ChainSpark@@SAPAXIPAW4EInternal@@@Z
 ??2ACTVE_Commander@@SAPAXIPAVUObject@@VFName@@K@Z
 ??2ACTVE_Commander@@SAPAXIPAW4EInternal@@@Z
 ??2ACTVE_Dialog@@SAPAXIPAVUObject@@VFName@@K@Z
 ??2ACTVE_Dialog@@SAPAXIPAW4EInternal@@@Z
 ??2ACTVE_DialogInput@@SAPAXIPAVUObject@@VFName@@K@Z
 ??2ACTVE_DialogInput@@SAPAXIPAW4EInternal@@@Z
 ??2ACTVE_Director@@SAPAXIPAVUObject@@VFName@@K@Z
 ??2ACTVE_Director@@SAPAXIPAW4EInternal@@@Z
 ??2ACTVE_Document@@SAPAXIPAVUObject@@VFName@@K@Z
 ??2ACTVE_Document@@SAPAXIPAW4EInternal@@@Z
 ??2ACTVE_EXP_Smoke@@SAPAXIPAVUObject@@VFName@@K@Z
 ??2ACTVE_EXP_Smoke@@SAPAXIPAW4EInternal@@@Z
 ??2ACTVE_Engine@@SAPAXIPAVUObject@@VFName@@K@Z
 ??2ACTVE_Engine@@SAPAXIPAW4EInternal@@@Z
 ??2ACTVE_Generator@@SAPAXIPAVUObject@@VFName@@K@Z
 ??2ACTVE_Generator@@SAPAXIPAW4EInternal@@@Z
 ??2ACTVE_Hud@@SAPAXIPAVUObject@@VFName@@K@Z
 ??2ACTVE_Hud@@SAPAXIPAW4EInternal@@@Z
 ??2ACTVE_InterpolationPoint@@SAPAXIPAVUObject@@VFName@@K@Z
 ??2ACTVE_InterpolationPoint@@SAPAXIPAW4EInternal@@@Z
 ??2ACTVE_NavigationAssist@@SAPAXIPAVUObject@@VFName@@K@Z
 ??2ACTVE_NavigationAssist@@SAPAXIPAW4EInternal@@@Z
 ??2ACTVE_Particle@@SAPAXIPAVUObject@@VFName@@K@Z
 ??2ACTVE_Particle@@SAPAXIPAW4EInternal@@@Z
 ??2ACTVE_Pawn@@SAPAXIPAVUObject@@VFName@@K@Z
 ??2ACTVE_Pawn@@SAPAXIPAW4EInternal@@@Z
 ??2ACTVE_PlayerPawn@@SAPAXIPAVUObject@@VFName@@K@Z
 ??2ACTVE_PlayerPawn@@SAPAXIPAW4EInternal@@@Z
 ??2ACTVE_PlayerStart@@SAPAXIPAVUObject@@VFName@@K@Z
 ??2ACTVE_PlayerStart@@SAPAXIPAW4EInternal@@@Z
 ??2ACTVE_RenderConstraint@@SAPAXIPAVUObject@@VFName@@K@Z
 ??2ACTVE_RenderConstraint@@SAPAXIPAW4EInternal@@@Z
 ??2ACTVE_Sparks@@SAPAXIPAVUObject@@VFName@@K@Z
 ??2ACTVE_Sparks@@SAPAXIPAW4EInternal@@@Z
 ??2ACTVE_Spline@@SAPAXIPAVUObject@@VFName@@K@Z
 ??2ACTVE_Spline@@SAPAXIPAW4EInternal@@@Z
 ??2ACTVE_Sprite@@SAPAXIPAVUObject@@VFName@@K@Z
 ??2ACTVE_Sprite@@SAPAXIPAW4EInternal@@@Z
 ??2ACTVE_Tangent@@SAPAXIPAVUObject@@VFName@@K@Z
 ??2ACTVE_Tangent@@SAPAXIPAW4EInternal@@@Z
 ??2ACTVE_TricorderInfo@@SAPAXIPAVUObject@@VFName@@K@Z
 ??2ACTVE_TricorderInfo@@SAPAXIPAW4EInternal@@@Z
 ??2ACTVE_Weather@@SAPAXIPAVUObject@@VFName@@K@Z
 ??2ACTVE_Weather@@SAPAXIPAW4EInternal@@@Z
 ??2ACamera@@SAPAXIPAVUObject@@VFName@@K@Z
 ??2ACamera@@SAPAXIPAW4EInternal@@@Z
 ??2ACarcass@@SAPAXIPAVUObject@@VFName@@K@Z
 ??2ACarcass@@SAPAXIPAW4EInternal@@@Z
 ??2ADecal@@SAPAXIPAVUObject@@VFName@@K@Z
 ??2ADecal@@SAPAXIPAW4EInternal@@@Z
 ??2ADecoration@@SAPAXIPAVUObject@@VFName@@K@Z
 ??2ADecoration@@SAPAXIPAW4EInternal@@@Z
 ??2AEffects@@SAPAXIPAVUObject@@VFName@@K@Z
 ??2AEffects@@SAPAXIPAW4EInternal@@@Z
 ??2AGameInfo@@SAPAXIPAVUObject@@VFName@@K@Z
 ??2AGameInfo@@SAPAXIPAW4EInternal@@@Z
 ??2AGameReplicationInfo@@SAPAXIPAVUObject@@VFName@@K@Z
 ??2AGameReplicationInfo@@SAPAXIPAW4EInternal@@@Z
 ??2AHUD@@SAPAXIPAVUObject@@VFName@@K@Z
 ??2AHUD@@SAPAXIPAW4EInternal@@@Z
 ??2AInfo@@SAPAXIPAVUObject@@VFName@@K@Z
 ??2AInfo@@SAPAXIPAW4EInternal@@@Z
 ??2AInternetInfo@@SAPAXIPAVUObject@@VFName@@K@Z
 ??2AInternetInfo@@SAPAXIPAW4EInternal@@@Z
 ??2AInterpolationPoint@@SAPAXIPAVUObject@@VFName@@K@Z
 ??2AInterpolationPoint@@SAPAXIPAW4EInternal@@@Z
 ??2AInventory@@SAPAXIPAVUObject@@VFName@@K@Z
 ??2AInventory@@SAPAXIPAW4EInternal@@@Z
 ??2AInventorySpot@@SAPAXIPAVUObject@@VFName@@K@Z
 ??2AInventorySpot@@SAPAXIPAW4EInternal@@@Z
 ??2AKeypoint@@SAPAXIPAVUObject@@VFName@@K@Z
 ??2AKeypoint@@SAPAXIPAW4EInternal@@@Z
 ??2ALevelInfo@@SAPAXIPAVUObject@@VFName@@K@Z
 ??2ALevelInfo@@SAPAXIPAW4EInternal@@@Z
 ??2ALiftCenter@@SAPAXIPAVUObject@@VFName@@K@Z
 ??2ALiftCenter@@SAPAXIPAW4EInternal@@@Z
 ??2ALiftExit@@SAPAXIPAVUObject@@VFName@@K@Z
 ??2ALiftExit@@SAPAXIPAW4EInternal@@@Z
 ??2ALight@@SAPAXIPAVUObject@@VFName@@K@Z
 ??2ALight@@SAPAXIPAW4EInternal@@@Z
 ??2AMenu@@SAPAXIPAVUObject@@VFName@@K@Z
 ??2AMenu@@SAPAXIPAW4EInternal@@@Z
 ??2AMover@@SAPAXIPAVUObject@@VFName@@K@Z
 ??2AMover@@SAPAXIPAW4EInternal@@@Z
 ??2AMutator@@SAPAXIPAVUObject@@VFName@@K@Z
 ??2AMutator@@SAPAXIPAW4EInternal@@@Z
 ??2ANavigationPoint@@SAPAXIPAVUObject@@VFName@@K@Z
 ??2ANavigationPoint@@SAPAXIPAW4EInternal@@@Z
 ??2APathNode@@SAPAXIPAVUObject@@VFName@@K@Z
 ??2APathNode@@SAPAXIPAW4EInternal@@@Z
 ??2APawn@@SAPAXIPAVUObject@@VFName@@K@Z
 ??2APawn@@SAPAXIPAW4EInternal@@@Z
 ??2APlayerPawn@@SAPAXIPAVUObject@@VFName@@K@Z
 ??2APlayerPawn@@SAPAXIPAW4EInternal@@@Z
 ??2APlayerReplicationInfo@@SAPAXIPAVUObject@@VFName@@K@Z
 ??2APlayerReplicationInfo@@SAPAXIPAW4EInternal@@@Z
 ??2APlayerStart@@SAPAXIPAVUObject@@VFName@@K@Z
 ??2APlayerStart@@SAPAXIPAW4EInternal@@@Z
 ??2AProjectile@@SAPAXIPAVUObject@@VFName@@K@Z
 ??2AProjectile@@SAPAXIPAW4EInternal@@@Z
 ??2AReplicationInfo@@SAPAXIPAVUObject@@VFName@@K@Z
 ??2AReplicationInfo@@SAPAXIPAW4EInternal@@@Z
 ??2ASavedMove@@SAPAXIPAVUObject@@VFName@@K@Z
 ??2ASavedMove@@SAPAXIPAW4EInternal@@@Z
 ??2AScout@@SAPAXIPAVUObject@@VFName@@K@Z
 ??2AScout@@SAPAXIPAW4EInternal@@@Z
 ??2ASkyZoneInfo@@SAPAXIPAVUObject@@VFName@@K@Z
 ??2ASkyZoneInfo@@SAPAXIPAW4EInternal@@@Z
 ??2ASpecialEvent@@SAPAXIPAVUObject@@VFName@@K@Z
 ??2ASpecialEvent@@SAPAXIPAW4EInternal@@@Z
 ??2AStatLog@@SAPAXIPAVUObject@@VFName@@K@Z
 ??2AStatLog@@SAPAXIPAW4EInternal@@@Z
 ??2AStatLogFile@@SAPAXIPAVUObject@@VFName@@K@Z
 ??2AStatLogFile@@SAPAXIPAW4EInternal@@@Z
 ??2ATeleporter@@SAPAXIPAVUObject@@VFName@@K@Z
 ??2ATeleporter@@SAPAXIPAW4EInternal@@@Z
 ??2ATimeDemo@@SAPAXIPAVUObject@@VFName@@K@Z
 ??2ATimeDemo@@SAPAXIPAW4EInternal@@@Z
 ??2ATrigger@@SAPAXIPAVUObject@@VFName@@K@Z
 ??2ATrigger@@SAPAXIPAW4EInternal@@@Z
 ??2ATriggerLight@@SAPAXIPAVUObject@@VFName@@K@Z
 ??2ATriggerLight@@SAPAXIPAW4EInternal@@@Z
 ??2ATriggerMarker@@SAPAXIPAVUObject@@VFName@@K@Z
 ??2ATriggerMarker@@SAPAXIPAW4EInternal@@@Z
 ??2ATriggers@@SAPAXIPAVUObject@@VFName@@K@Z
 ??2ATriggers@@SAPAXIPAW4EInternal@@@Z
 ??2AWarpZoneInfo@@SAPAXIPAVUObject@@VFName@@K@Z
 ??2AWarpZoneInfo@@SAPAXIPAW4EInternal@@@Z
 ??2AWarpZoneMarker@@SAPAXIPAVUObject@@VFName@@K@Z
 ??2AWarpZoneMarker@@SAPAXIPAW4EInternal@@@Z
 ??2AWeapon@@SAPAXIPAVUObject@@VFName@@K@Z
 ??2AWeapon@@SAPAXIPAW4EInternal@@@Z
 ??2AZoneInfo@@SAPAXIPAVUObject@@VFName@@K@Z
 ??2AZoneInfo@@SAPAXIPAW4EInternal@@@Z
 ??2Alocationid@@SAPAXIPAVUObject@@VFName@@K@Z
 ??2Alocationid@@SAPAXIPAW4EInternal@@@Z
 ??2UActorChannel@@SAPAXIPAVUObject@@VFName@@K@Z
 ??2UActorChannel@@SAPAXIPAW4EInternal@@@Z
 ??2UAudioSubsystem@@SAPAXIPAVUObject@@VFName@@K@Z
 ??2UAudioSubsystem@@SAPAXIPAW4EInternal@@@Z
 ??2UBitmap@@SAPAXIPAVUObject@@VFName@@K@Z
 ??2UBitmap@@SAPAXIPAW4EInternal@@@Z
 ??2UBspNodes@@SAPAXIPAVUObject@@VFName@@K@Z
 ??2UBspNodes@@SAPAXIPAW4EInternal@@@Z
 ??2UBspSurfs@@SAPAXIPAVUObject@@VFName@@K@Z
 ??2UBspSurfs@@SAPAXIPAW4EInternal@@@Z
 ??2UC3DFLIC@@SAPAXIPAVUObject@@VFName@@K@Z
 ??2UC3DFLIC@@SAPAXIPAW4EInternal@@@Z
 ??2UC3DMESHSTATE@@SAPAXIPAVUObject@@VFName@@K@Z
 ??2UC3DMESHSTATE@@SAPAXIPAW4EInternal@@@Z
 ??2UCTVE_DllObject@@SAPAXIPAVUObject@@VFName@@K@Z
 ??2UCTVE_DllObject@@SAPAXIPAW4EInternal@@@Z
 ??2UCTVE_MultiMesh@@SAPAXIPAVUObject@@VFName@@K@Z
 ??2UCTVE_MultiMesh@@SAPAXIPAW4EInternal@@@Z
 ??2UCanvas@@SAPAXIPAVUObject@@VFName@@K@Z
 ??2UCanvas@@SAPAXIPAW4EInternal@@@Z
 ??2UChannel@@SAPAXIPAVUObject@@VFName@@K@Z
 ??2UChannel@@SAPAXIPAW4EInternal@@@Z
 ??2UClient@@SAPAXIPAVUObject@@VFName@@K@Z
 ??2UClient@@SAPAXIPAW4EInternal@@@Z
 ??2UConsole@@SAPAXIPAVUObject@@VFName@@K@Z
 ??2UConsole@@SAPAXIPAW4EInternal@@@Z
 ??2UControlChannel@@SAPAXIPAVUObject@@VFName@@K@Z
 ??2UControlChannel@@SAPAXIPAW4EInternal@@@Z
 ??2UDemoRecConnection@@SAPAXIPAVUObject@@VFName@@K@Z
 ??2UDemoRecConnection@@SAPAXIPAW4EInternal@@@Z
 ??2UDemoRecDriver@@SAPAXIPAVUObject@@VFName@@K@Z
 ??2UDemoRecDriver@@SAPAXIPAW4EInternal@@@Z
 ??2UEngine@@SAPAXIPAVUObject@@VFName@@K@Z
 ??2UEngine@@SAPAXIPAW4EInternal@@@Z
 ??2UFileChannel@@SAPAXIPAVUObject@@VFName@@K@Z
 ??2UFileChannel@@SAPAXIPAW4EInternal@@@Z
 ??2UFliTexture@@SAPAXIPAVUObject@@VFName@@K@Z
 ??2UFliTexture@@SAPAXIPAW4EInternal@@@Z
 ??2UFont@@SAPAXIPAVUObject@@VFName@@K@Z
 ??2UFont@@SAPAXIPAW4EInternal@@@Z
 ??2UGameEngine@@SAPAXIPAVUObject@@VFName@@K@Z
 ??2UGameEngine@@SAPAXIPAW4EInternal@@@Z
 ??2UInput@@SAPAXIPAVUObject@@VFName@@K@Z
 ??2UInput@@SAPAXIPAW4EInternal@@@Z
 ??2ULevel@@SAPAXIPAVUObject@@VFName@@K@Z
 ??2ULevel@@SAPAXIPAW4EInternal@@@Z
 ??2ULevelBase@@SAPAXIPAVUObject@@VFName@@K@Z
 ??2ULevelBase@@SAPAXIPAW4EInternal@@@Z
 ??2ULevelSummary@@SAPAXIPAVUObject@@VFName@@K@Z
 ??2ULevelSummary@@SAPAXIPAW4EInternal@@@Z
 ??2ULodMesh@@SAPAXIPAVUObject@@VFName@@K@Z
 ??2ULodMesh@@SAPAXIPAW4EInternal@@@Z
 ??2UMesh@@SAPAXIPAVUObject@@VFName@@K@Z
 ??2UMesh@@SAPAXIPAW4EInternal@@@Z
 ??2UModel@@SAPAXIPAVUObject@@VFName@@K@Z
 ??2UModel@@SAPAXIPAW4EInternal@@@Z
 ??2UMusic@@SAPAXIPAVUObject@@VFName@@K@Z
 ??2UMusic@@SAPAXIPAW4EInternal@@@Z
 ??2UNetConnection@@SAPAXIPAVUObject@@VFName@@K@Z
 ??2UNetConnection@@SAPAXIPAW4EInternal@@@Z
 ??2UNetDriver@@SAPAXIPAVUObject@@VFName@@K@Z
 ??2UNetDriver@@SAPAXIPAW4EInternal@@@Z
 ??2UPackageMapLevel@@SAPAXIPAVUObject@@VFName@@K@Z
 ??2UPackageMapLevel@@SAPAXIPAW4EInternal@@@Z
 ??2UPalette@@SAPAXIPAVUObject@@VFName@@K@Z
 ??2UPalette@@SAPAXIPAW4EInternal@@@Z
 ??2UPlayer@@SAPAXIPAVUObject@@VFName@@K@Z
 ??2UPlayer@@SAPAXIPAW4EInternal@@@Z
 ??2UPolys@@SAPAXIPAVUObject@@VFName@@K@Z
 ??2UPolys@@SAPAXIPAW4EInternal@@@Z
 ??2UPrimitive@@SAPAXIPAVUObject@@VFName@@K@Z
 ??2UPrimitive@@SAPAXIPAW4EInternal@@@Z
 ??2URenderBase@@SAPAXIPAVUObject@@VFName@@K@Z
 ??2URenderBase@@SAPAXIPAW4EInternal@@@Z
 ??2URenderDevice@@SAPAXIPAVUObject@@VFName@@K@Z
 ??2URenderDevice@@SAPAXIPAW4EInternal@@@Z
 ??2URenderIterator@@SAPAXIPAVUObject@@VFName@@K@Z
 ??2URenderIterator@@SAPAXIPAW4EInternal@@@Z
 ??2UScriptedTexture@@SAPAXIPAVUObject@@VFName@@K@Z
 ??2UScriptedTexture@@SAPAXIPAW4EInternal@@@Z
 ??2USound@@SAPAXIPAVUObject@@VFName@@K@Z
 ??2USound@@SAPAXIPAW4EInternal@@@Z
 ??2UTexture@@SAPAXIPAVUObject@@VFName@@K@Z
 ??2UTexture@@SAPAXIPAW4EInternal@@@Z
 ??2UVectors@@SAPAXIPAVUObject@@VFName@@K@Z
 ??2UVectors@@SAPAXIPAW4EInternal@@@Z
 ??2UVerts@@SAPAXIPAVUObject@@VFName@@K@Z
 ??2UVerts@@SAPAXIPAW4EInternal@@@Z
 ??2UViewport@@SAPAXIPAVUObject@@VFName@@K@Z
 ??2UViewport@@SAPAXIPAW4EInternal@@@Z
 ??4AActor@@QAEAAV0@ABV0@@Z
 ??4ABrush@@QAEAAV0@ABV0@@Z
 ??4AButtonMarker@@QAEAAV0@ABV0@@Z
 ??4ACTVE_BeamFX@@QAEAAV0@ABV0@@Z
 ??4ACTVE_Camera@@QAEAAV0@ABV0@@Z
 ??4ACTVE_ChainSpark@@QAEAAV0@ABV0@@Z
 ??4ACTVE_Commander@@QAEAAV0@ABV0@@Z
 ??4ACTVE_Dialog@@QAEAAV0@ABV0@@Z
 ??4ACTVE_DialogInput@@QAEAAV0@ABV0@@Z
 ??4ACTVE_Director@@QAEAAV0@ABV0@@Z
 ??4ACTVE_Document@@QAEAAV0@ABV0@@Z
 ??4ACTVE_EXP_Smoke@@QAEAAV0@ABV0@@Z
 ??4ACTVE_Engine@@QAEAAV0@ABV0@@Z
 ??4ACTVE_Generator@@QAEAAV0@ABV0@@Z
 ??4ACTVE_Hud@@QAEAAV0@ABV0@@Z
 ??4ACTVE_InterpolationPoint@@QAEAAV0@ABV0@@Z
 ??4ACTVE_NavigationAssist@@QAEAAV0@ABV0@@Z
 ??4ACTVE_Particle@@QAEAAV0@ABV0@@Z
 ??4ACTVE_Pawn@@QAEAAV0@ABV0@@Z
 ??4ACTVE_PlayerPawn@@QAEAAV0@ABV0@@Z
 ??4ACTVE_PlayerStart@@QAEAAV0@ABV0@@Z
 ??4ACTVE_RenderConstraint@@QAEAAV0@ABV0@@Z
 ??4ACTVE_Sparks@@QAEAAV0@ABV0@@Z
 ??4ACTVE_Spline@@QAEAAV0@ABV0@@Z
 ??4ACTVE_Sprite@@QAEAAV0@ABV0@@Z
 ??4ACTVE_Tangent@@QAEAAV0@ABV0@@Z
 ??4ACTVE_TricorderInfo@@QAEAAV0@ABV0@@Z
 ??4ACTVE_Weather@@QAEAAV0@ABV0@@Z
 ??4ACamera@@QAEAAV0@ABV0@@Z
 ??4ACarcass@@QAEAAV0@ABV0@@Z
 ??4ADecal@@QAEAAV0@ABV0@@Z
 ??4ADecoration@@QAEAAV0@ABV0@@Z
 ??4AEffects@@QAEAAV0@ABV0@@Z
 ??4AGameInfo@@QAEAAV0@ABV0@@Z
 ??4AGameReplicationInfo@@QAEAAV0@ABV0@@Z
 ??4AHUD@@QAEAAV0@ABV0@@Z
 ??4AInfo@@QAEAAV0@ABV0@@Z
 ??4AInternetInfo@@QAEAAV0@ABV0@@Z
 ??4AInterpolationPoint@@QAEAAV0@ABV0@@Z
 ??4AInventory@@QAEAAV0@ABV0@@Z
 ??4AInventorySpot@@QAEAAV0@ABV0@@Z
 ??4AKeypoint@@QAEAAV0@ABV0@@Z
 ??4ALevelInfo@@QAEAAV0@ABV0@@Z
 ??4ALiftCenter@@QAEAAV0@ABV0@@Z
 ??4ALiftExit@@QAEAAV0@ABV0@@Z
 ??4ALight@@QAEAAV0@ABV0@@Z
 ??4AMenu@@QAEAAV0@ABV0@@Z
 ??4AMover@@QAEAAV0@ABV0@@Z
 ??4AMutator@@QAEAAV0@ABV0@@Z
 ??4ANavigationPoint@@QAEAAV0@ABV0@@Z
 ??4APathNode@@QAEAAV0@ABV0@@Z
 ??4APawn@@QAEAAV0@ABV0@@Z
 ??4APlayerPawn@@QAEAAV0@ABV0@@Z
 ??4APlayerReplicationInfo@@QAEAAV0@ABV0@@Z
 ??4APlayerStart@@QAEAAV0@ABV0@@Z
 ??4AProjectile@@QAEAAV0@ABV0@@Z
 ??4AReplicationInfo@@QAEAAV0@ABV0@@Z
 ??4ASavedMove@@QAEAAV0@ABV0@@Z
 ??4AScout@@QAEAAV0@ABV0@@Z
 ??4ASkyZoneInfo@@QAEAAV0@ABV0@@Z
 ??4ASpecialEvent@@QAEAAV0@ABV0@@Z
 ??4AStatLog@@QAEAAV0@ABV0@@Z
 ??4AStatLogFile@@QAEAAV0@ABV0@@Z
 ??4ATeleporter@@QAEAAV0@ABV0@@Z
 ??4ATimeDemo@@QAEAAV0@ABV0@@Z
 ??4ATrigger@@QAEAAV0@ABV0@@Z
 ??4ATriggerLight@@QAEAAV0@ABV0@@Z
 ??4ATriggerMarker@@QAEAAV0@ABV0@@Z
 ??4ATriggers@@QAEAAV0@ABV0@@Z
 ??4AWarpZoneInfo@@QAEAAV0@ABV0@@Z
 ??4AWarpZoneMarker@@QAEAAV0@ABV0@@Z
 ??4AWeapon@@QAEAAV0@ABV0@@Z
 ??4AZoneInfo@@QAEAAV0@ABV0@@Z
 ??4Alocationid@@QAEAAV0@ABV0@@Z
 ??4FActorNode@@QAEAAV0@ABV0@@Z
 ??4FAudioTracker@@QAEAAV0@ABV0@@Z
 ??4FCollisionHash@@QAEAAV0@ABV0@@Z
 ??4FColor@@QAEAAV0@ABV0@@Z
 ??4FFontCharacter@@QAEAAU0@ABU0@@Z
 ??4FFontPage@@QAEAAU0@ABU0@@Z
 ??4FHitCause@@QAEAAU0@ABU0@@Z
 ??4FHitObserver@@QAEAAV0@ABV0@@Z
 ??4FInBunch@@QAEAAV0@ABV0@@Z
 ??4FLightMapIndex@@QAEAAV0@ABV0@@Z
 ??4FMipmap@@QAEAAU0@ABU0@@Z
 ??4FMipmapBase@@QAEAAU0@ABU0@@Z
 ??4FNetworkNotify@@QAEAAV0@ABV0@@Z
 ??4FOutBunch@@QAEAAV0@ABV0@@Z
 ??4FPathBuilder@@QAEAAV0@ABV0@@Z
 ??4FPointRegion@@QAEAAU0@ABU0@@Z
 ??4FPoly@@QAEAAV0@ABV0@@Z
 ??4FReachSpec@@QAEAAV0@ABV0@@Z
 ??4FSceneNode@@QAEAAU0@ABU0@@Z
 ??4FScreenBounds@@QAEAAU0@ABU0@@Z
 ??4FShadowMask@@QAEAAV0@ABV0@@Z
 ??4FSoundData@@QAEAAV0@ABV0@@Z
 ??4FTextureInfo@@QAEAAU0@ABU0@@Z
 ??4FURL@@QAEAAV0@ABV0@@Z
 ??4FWeatherBlockStruct@@QAEAAU0@ABU0@@Z
 ??4FZoneProperties@@QAEAAV0@ABV0@@Z
 ??4HActor@@QAEAAU0@ABU0@@Z
 ??4HBspSurf@@QAEAAU0@ABU0@@Z
 ??4HCoords@@QAEAAU0@ABU0@@Z
 ??4HHitProxy@@QAEAAU0@ABU0@@Z
 ??4UActorChannel@@QAEAAV0@ABV0@@Z
 ??4UAudioSubsystem@@QAEAAV0@ABV0@@Z
 ??4UBitmap@@QAEAAV0@ABV0@@Z
 ??4UBspNodes@@QAEAAV0@ABV0@@Z
 ??4UBspSurfs@@QAEAAV0@ABV0@@Z
 ??4UC3DFLIC@@QAEAAV0@ABV0@@Z
 ??4UC3DMESHSTATE@@QAEAAV0@ABV0@@Z
 ??4UCTVE_DllObject@@QAEAAV0@ABV0@@Z
 ??4UCTVE_MultiMesh@@QAEAAV0@ABV0@@Z
 ??4UCanvas@@QAEAAV0@ABV0@@Z
 ??4UChannel@@QAEAAV0@ABV0@@Z
 ??4UClient@@QAEAAV0@ABV0@@Z
 ??4UConsole@@QAEAAV0@ABV0@@Z
 ??4UControlChannel@@QAEAAV0@ABV0@@Z
 ??4UDemoRecConnection@@QAEAAV0@ABV0@@Z
 ??4UDemoRecDriver@@QAEAAV0@ABV0@@Z
 ??4UEngine@@QAEAAV0@ABV0@@Z
 ??4UFileChannel@@QAEAAV0@ABV0@@Z
 ??4UFliTexture@@QAEAAV0@ABV0@@Z
 ??4UFont@@QAEAAV0@ABV0@@Z
 ??4UGameEngine@@QAEAAV0@ABV0@@Z
 ??4UInput@@QAEAAV0@ABV0@@Z
 ??4ULevel@@QAEAAV0@ABV0@@Z
 ??4ULevelBase@@QAEAAV0@ABV0@@Z
 ??4ULevelSummary@@QAEAAV0@ABV0@@Z
 ??4ULodMesh@@QAEAAV0@ABV0@@Z
 ??4UMesh@@QAEAAV0@ABV0@@Z
 ??4UModel@@QAEAAV0@ABV0@@Z
 ??4UMusic@@QAEAAV0@ABV0@@Z
 ??4UNetConnection@@QAEAAV0@ABV0@@Z
 ??4UNetDriver@@QAEAAV0@ABV0@@Z
 ??4UPackageMapLevel@@QAEAAV0@ABV0@@Z
 ??4UPalette@@QAEAAV0@ABV0@@Z
 ??4UPlayer@@QAEAAV0@ABV0@@Z
 ??4UPolys@@QAEAAV0@ABV0@@Z
 ??4UPrimitive@@QAEAAV0@ABV0@@Z
 ??4URenderBase@@QAEAAV0@ABV0@@Z
 ??4URenderDevice@@QAEAAV0@ABV0@@Z
 ??4URenderIterator@@QAEAAV0@ABV0@@Z
 ??4UScriptedTexture@@QAEAAV0@ABV0@@Z
 ??4USound@@QAEAAV0@ABV0@@Z
 ??4UTexture@@QAEAAV0@ABV0@@Z
 ??4UVectors@@QAEAAV0@ABV0@@Z
 ??4UVerts@@QAEAAV0@ABV0@@Z
 ??4UViewport@@QAEAAV0@ABV0@@Z
 ??6@YAAAVFArchive@@AAV0@AAVFBspNode@@@Z
 ??6@YAAAVFArchive@@AAV0@AAVFBspSurf@@@Z
 ??6@YAAAVFArchive@@AAV0@AAVFPoly@@@Z
 ??6@YAAAVFArchive@@AAV0@AAVFURL@@@Z
 ??6FInBunch@@UAEAAVFArchive@@AAPAVUObject@@@Z
 ??6FInBunch@@UAEAAVFArchive@@AAVFName@@@Z
 ??6FOutBunch@@UAEAAVFArchive@@AAPAVUObject@@@Z
 ??6FOutBunch@@UAEAAVFArchive@@AAVFName@@@Z
 ??8FColor@@QBEHABV0@@Z
 ??8FReachSpec@@QAEHABV0@@Z
 ??8FURL@@QBEHABV0@@Z
 ??9FColor@@QBEHABV0@@Z
 ??HFReachSpec@@QBE?AV0@ABV0@@Z
 ??NFReachSpec@@QAEHABV0@@Z
 ??_7AActor@@6B@
 ??_7ABrush@@6B@
 ??_7AButtonMarker@@6B@
 ??_7ACTVE_BeamFX@@6B@
 ??_7ACTVE_Camera@@6B@
 ??_7ACTVE_ChainSpark@@6B@
 ??_7ACTVE_Commander@@6B@
 ??_7ACTVE_Dialog@@6B@
 ??_7ACTVE_DialogInput@@6B@
 ??_7ACTVE_Director@@6B@
 ??_7ACTVE_Document@@6B@
 ??_7ACTVE_EXP_Smoke@@6B@
 ??_7ACTVE_Engine@@6B@
 ??_7ACTVE_Generator@@6B@
 ??_7ACTVE_Hud@@6B@
 ??_7ACTVE_InterpolationPoint@@6B@
 ??_7ACTVE_NavigationAssist@@6B@
 ??_7ACTVE_Particle@@6B@
 ??_7ACTVE_Pawn@@6B@
 ??_7ACTVE_PlayerPawn@@6B@
 ??_7ACTVE_PlayerStart@@6B@
 ??_7ACTVE_RenderConstraint@@6B@
 ??_7ACTVE_Sparks@@6B@
 ??_7ACTVE_Spline@@6B@
 ??_7ACTVE_Sprite@@6B@
 ??_7ACTVE_Tangent@@6B@
 ??_7ACTVE_TricorderInfo@@6B@
 ??_7ACTVE_Weather@@6B@
 ??_7ACamera@@6B@
 ??_7ACarcass@@6B@
 ??_7ADecal@@6B@
 ??_7ADecoration@@6B@
 ??_7AEffects@@6B@
 ??_7AGameInfo@@6B@
 ??_7AGameReplicationInfo@@6B@
 ??_7AHUD@@6B@
 ??_7AInfo@@6B@
 ??_7AInternetInfo@@6B@
 ??_7AInterpolationPoint@@6B@
 ??_7AInventory@@6B@
 ??_7AInventorySpot@@6B@
 ??_7AKeypoint@@6B@
 ??_7ALevelInfo@@6B@
 ??_7ALiftCenter@@6B@
 ??_7ALiftExit@@6B@
 ??_7ALight@@6B@
 ??_7AMenu@@6B@
 ??_7AMover@@6B@
 ??_7AMutator@@6B@
 ??_7ANavigationPoint@@6B@
 ??_7APathNode@@6B@
 ??_7APawn@@6B@
 ??_7APlayerPawn@@6B@
 ??_7APlayerReplicationInfo@@6B@
 ??_7APlayerStart@@6B@
 ??_7AProjectile@@6B@
 ??_7AReplicationInfo@@6B@
 ??_7ASavedMove@@6B@
 ??_7AScout@@6B@
 ??_7ASkyZoneInfo@@6B@
 ??_7ASpecialEvent@@6B@
 ??_7AStatLog@@6B@
 ??_7AStatLogFile@@6B@
 ??_7ATeleporter@@6B@
 ??_7ATimeDemo@@6B@
 ??_7ATrigger@@6B@
 ??_7ATriggerLight@@6B@
 ??_7ATriggerMarker@@6B@
 ??_7ATriggers@@6B@
 ??_7AWarpZoneInfo@@6B@
 ??_7AWarpZoneMarker@@6B@
 ??_7AWeapon@@6B@
 ??_7AZoneInfo@@6B@
 ??_7Alocationid@@6B@
 ??_7FCollisionHash@@6B@
 ??_7FHitObserver@@6B@
 ??_7FInBunch@@6B@
 ??_7FNetworkNotify@@6B@
 ??_7FOutBunch@@6B@
 ??_7FSoundData@@6B@
 ??_7HActor@@6B@
 ??_7HBspSurf@@6B@
 ??_7HCoords@@6B@
 ??_7HHitProxy@@6B@
 ??_7UActorChannel@@6B@
 ??_7UAudioSubsystem@@6BFExec@@@
 ??_7UAudioSubsystem@@6BUObject@@@
 ??_7UBitmap@@6B@
 ??_7UBspNodes@@6B@
 ??_7UBspSurfs@@6B@
 ??_7UC3DFLIC@@6B@
 ??_7UC3DMESHSTATE@@6B@
 ??_7UCTVE_DllObject@@6B@
 ??_7UCTVE_MultiMesh@@6B@
 ??_7UCanvas@@6B@
 ??_7UChannel@@6B@
 ??_7UClient@@6B@
 ??_7UConsole@@6BFOutputDevice@@@
 ??_7UConsole@@6BUObject@@@
 ??_7UControlChannel@@6BFOutputDevice@@@
 ??_7UControlChannel@@6BUChannel@@@
 ??_7UDemoRecConnection@@6BFExec@@@
 ??_7UDemoRecConnection@@6BFOutputDevice@@@
 ??_7UDemoRecConnection@@6BUObject@@@
 ??_7UDemoRecDriver@@6BFExec@@@
 ??_7UDemoRecDriver@@6BUObject@@@
 ??_7UEngine@@6BFExec@@@
 ??_7UEngine@@6BUObject@@@
 ??_7UFileChannel@@6B@
 ??_7UFliTexture@@6B@
 ??_7UFont@@6B@
 ??_7UGameEngine@@6BFExec@@@
 ??_7UGameEngine@@6BUObject@@@
 ??_7UInput@@6BFExec@@@
 ??_7UInput@@6BUObject@@@
 ??_7ULevel@@6BFNetworkNotify@@@
 ??_7ULevel@@6BUObject@@@
 ??_7ULevelBase@@6BFNetworkNotify@@@
 ??_7ULevelBase@@6BUObject@@@
 ??_7ULevelSummary@@6B@
 ??_7ULodMesh@@6B@
 ??_7UMesh@@6B@
 ??_7UModel@@6B@
 ??_7UMusic@@6B@
 ??_7UNetConnection@@6BFExec@@@
 ??_7UNetConnection@@6BFOutputDevice@@@
 ??_7UNetConnection@@6BUObject@@@
 ??_7UNetDriver@@6BFExec@@@
 ??_7UNetDriver@@6BUObject@@@
 ??_7UPackageMapLevel@@6B@
 ??_7UPalette@@6B@
 ??_7UPlayer@@6BFExec@@@
 ??_7UPlayer@@6BFOutputDevice@@@
 ??_7UPlayer@@6BUObject@@@
 ??_7UPolys@@6B@
 ??_7UPrimitive@@6B@
 ??_7URenderBase@@6BFExec@@@
 ??_7URenderBase@@6BUObject@@@
 ??_7URenderDevice@@6BFExec@@@
 ??_7URenderDevice@@6BUObject@@@
 ??_7URenderIterator@@6B@
 ??_7UScriptedTexture@@6B@
 ??_7USound@@6B@
 ??_7UTexture@@6B@
 ??_7UVectors@@6B@
 ??_7UVerts@@6B@
 ??_7UViewport@@6BFExec@@@
 ??_7UViewport@@6BFOutputDevice@@@
 ??_7UViewport@@6BUObject@@@
 ??_C@_04FKCF@?$CI?$CFs?$CJ?$AA@
 ??_C@_04JJBJ@User?$AA@
 ??_C@_05DJGJ@Other?$AA@
 ??_C@_05LDDM@Title?$AA@
 ??_C@_05NCED@Reset?$AA@
 ??_C@_05NJDM@Brush?$AA@
 ??_C@_06PDIP@HActor?$AA@
 ??_C@_07IDGH@HCoords?$AA@
 ??_C@_08CHIE@HBspSurf?$AA@
 ??_C@_09DEGN@HHitProxy?$AA@
 ??_C@_09HBFO@Actors?$CI0?$CJ?$AA@
 ??_C@_0BA@DADJ@Actors?4Num?$CI?$CJ?$DO?$DN2?$AA@
 ??_C@_0BA@OIOI@Actors?$CI1?$CJ?$CB?$DNNULL?$AA@
 ??_C@_0BA@OON@?4?4?2Inc?2ABrush?4h?$AA@
 ??_C@_0BB@EMOB@IdealPlayerCount?$AA@
 ??_C@_0BB@LHPD@?4?4?2Inc?2UnLevel?4h?$AA@
 ??_C@_0BE@FGCD@Actor?5not?5found?3?5?$CFs?$AA@
 ??_C@_0BH@EHGL@Actors?$CI1?$CJ?9?$DOBrush?$CB?$DNNULL?$AA@
 ??_C@_0CK@OLMN@Actors?$CI0?$CJ?9?$DOIsA?$CIALevelInfo?3?3Stati@
 ??_C@_0L@IBIL@LevelInfo0?$AA@
 ??_C@_0N@ELOE@Other?9?$DOBrush?$AA@
 ??_FFURL@@QAEXXZ
 ?ActorEncroachmentCheck@FCollisionHash@@UAEPAUFCheckResult@@AAVFMemStack@@PAVAActor@@VFVector@@VFRotator@@K@Z
 ?ActorLineCheck@FCollisionHash@@UAEPAUFCheckResult@@AAVFMemStack@@VFVector@@11E@Z
 ?ActorPointCheck@FCollisionHash@@UAEPAUFCheckResult@@AAVFMemStack@@VFVector@@1K@Z
 ?ActorRadiusCheck@FCollisionHash@@UAEPAUFCheckResult@@AAVFMemStack@@VFVector@@MK@Z
 ?AddActor@FCollisionHash@@UAEXPAVAActor@@@Z
 ?AddAudio@FAudioTracker@@QAEXPAVAActor@@HVFString@@MMMM@Z
 ?AddOption@FURL@@QAEXPBD@Z
 ?AddToTail@UCTVE_DllObject@@AAEXPAV1@@Z
 ?AdjustSpot@ULevel@@UAEHAAVFVector@@V2@M1HAAUFCheckResult@@@Z
 ?AdjustToWaterSurface@ACTVE_PlayerPawn@@AAEHVFVector@@0M@Z
 ?Area@FPoly@@QAEMXZ
 ?AssertInSequenced@UChannel@@QAEXXZ
 ?AssertValid@UNetConnection@@UAEXXZ
 ?AssertValid@UNetDriver@@UAEXXZ
 ?Audio@UMusic@@2PAVUAudioSubsystem@@A
 ?Audio@USound@@2PAVUAudioSubsystem@@A
 ?BeginTouch@AActor@@QAEXPAV1@@Z
 ?BestMatch@UPalette@@QAEEVFColor@@H@Z
 ?BezierPos@ACTVE_ChainSpark@@QAE?AVFVector@@M@Z
 ?BlockSheltersPlayer@ACTVE_Weather@@QAE_NH@Z
 ?BotOnlyPath@FReachSpec@@QAEHPAVULevel@@@Z
 ?Brighten@FColor@@QAE?AV1@H@Z
 ?Brightness@FColor@@QBEHXZ
 ?Browse@UGameEngine@@UAEHVFURL@@PBV?$TMap@VFString@@V1@@@AAVFString@@@Z
 ?Brush@ULevel@@QAEPAVABrush@@XZ
 ?BuildBound@UModel@@QAEXXZ
 ?BuildCoords@ABrush@@QAEMPAVFModelCoords@@0@Z
 ?BuildForceRenderSurfaces@UModel@@QAEXXZ
 ?BuildServerMasterMap@UGameEngine@@UAEXPAVUNetDriver@@PAVULevel@@@Z
 ?Burst@ACTVE_Sparks@@QAEXXZ
 ?ByteID@UViewport@@QAEEXZ
 ?C3DAnimEndCallBack@@YAXPAVC3DMESHSTATE@@AAVC3DSTRING@@1@Z
 ?C3DApplyIK@@YAXPAVAActor@@@Z
 ?C3DCleanUpSplines@@YAXPAVULevel@@@Z
 ?C3DDraw3DArrow@@YAXVFVector@@0VFPlane@@PAVUViewport@@PAUFSceneNode@@@Z
 ?C3DDrawSplinePaths@@YAXPAVUViewport@@PAUFSceneNode@@@Z
 ?C3DFindAnimation@@YA_NPAVUMesh@@AAVC3DSTRING@@AAH2AAPAV1@@Z
 ?C3DFixupCommander@@YAXPAVACTVE_Spline@@PAVACTVE_Commander@@H@Z
 ?C3DGetActorAnimState@AActor@@QAEXXZ
 ?C3DGetAnimState@@YAXPAVAActor@@@Z
 ?C3DGetAttachmentsState@@YAXPAVAActor@@@Z
 ?C3DGetWldToC3DTM@@YAXAAVC3DTRMATRIX@@PAVUMesh@@PAVAActor@@@Z
 ?C3DInterpolateRotation@@YAXAAVFRotator@@PAVACTVE_InterpolationPoint@@M@Z
 ?C3DInterpolateRotationX@@YA?AVFRotator@@MV1@0@Z
 ?C3DReinitialiseIfNecessary@@YAXPAVAActor@@@Z
 ?C3DSetupAltMeshPointers@@YAXAAVC3DMESH@@@Z
 ?C3DUpdateSplineVisuals@@YAXPAVUViewport@@PAUFSceneNode@@@Z
 ?C3DValidateMeshState@@YAXPAVAActor@@@Z
 ?CTVE_physPathing@AActor@@QAEXM@Z
 ?CacheMaxColor@FTextureInfo@@QAEXXZ
 ?CalcNormal@FPoly@@QAEHXZ
 ?CanHear@APawn@@QAEHVFVector@@MPAV1@@Z
 ?CanMoveTo@APawn@@QAEHPAVAActor@@0@Z
 ?CanSee@APlayerPawn@@UAE_NPBVAActor@@@Z
 ?CanSerializeObject@UPackageMapLevel@@UAEHPAVUObject@@@Z
 ?CancelPending@UGameEngine@@UAEXXZ
 ?ChallengeResponse@UEngine@@UAEHH@Z
 ?ChallengeResponse@UGameEngine@@UAEHH@Z
 ?ChannelClasses@UChannel@@2PAPAVUClass@@A
 ?CheckActorNotReferenced@FCollisionHash@@UAEXPAVAActor@@@Z
 ?CheckBlocks@ACTVE_Weather@@QAEXXZ
 ?CheckClimbing@ACTVE_PlayerPawn@@AAE_NAAUFCheckResult@@VFVector@@_N222@Z
 ?CheckEncroachment@ULevel@@UAEHPAVAActor@@VFVector@@VFRotator@@H@Z
 ?CheckEnemyVisible@APawn@@QAEXXZ
 ?CheckHearSound@AActor@@QAEXPAVAPawn@@HPAVUSound@@VFVector@@M@Z
 ?CheckNoiseHearing@AActor@@QAEXM@Z
 ?CleanupDestroyed@ULevel@@UAEXH@Z
 ?Clear@FMipmap@@QAEXXZ
 ?Clear@UC3DMESHSTATE@@QAEXXZ
 ?Clear@UTexture@@UAEXK@Z
 ?ClearScreen@APlayerPawn@@UAE_NXZ
 ?Click@FHitObserver@@UAEXABUFHitCause@@ABUHHitProxy@@@Z
 ?Click@HHitProxy@@UAEXABUFHitCause@@@Z
 ?Click@UGameEngine@@UAEXPAVUViewport@@KMM@Z
 ?Click@UTexture@@UAEXKMM@Z
 ?ClipNodeToBox@ACTVE_PlayerPawn@@AAE_NHAAVFCoords@@AAVFVector@@MMM@Z
 ?Close@UActorChannel@@UAEXXZ
 ?Close@UChannel@@UAEXXZ
 ?CollisionTag@FCollisionHash@@2HA
 ?CompactActors@ULevel@@UAEXXZ
 ?Compress@UTexture@@QAEHW4ETextureFormat@@H@Z
 ?Compute@ACTVE_Spline@@QAEXPAVUViewport@@PAUFSceneNode@@@Z
 ?ComputeHermiteTangent@ACTVE_Spline@@QAE?AVFVector@@AAV2@00@Z
 ?ComputeLength@ACTVE_Spline@@QAEMXZ
 ?ComputeRenderCoords@FSceneNode@@QAEXAAVFVector@@AAVFRotator@@@Z
 ?ComputeRenderSize@FSceneNode@@QAEXXZ
 ?ComputeRotation@ACTVE_Spline@@QAE?AVFRotator@@MAAVFVector@@@Z
 ?ConstantTimeTick@UTexture@@UAEXXZ
 ?CopyPosRotScaleFrom@ABrush@@UAEXPAV1@@Z
 ?CreateChannel@UNetConnection@@QAEPAVUChannel@@W4EChannelType@@HH@Z
 ?CreateColorRange@UTexture@@QAEXXZ
 ?CreateMips@UTexture@@QAEXHH@Z
 ?CurrentItem@URenderIterator@@UAEPAVAActor@@XZ
 ?Decompress@UTexture@@QAEHW4ETextureFormat@@@Z
 ?DefaultHost@FURL@@2VFString@@A
 ?DefaultLOD@UTexture@@QAEHXZ
 ?DefaultLocalMap@FURL@@2VFString@@A
 ?DefaultMap@FURL@@2VFString@@A
 ?DefaultMapExt@FURL@@2VFString@@A
 ?DefaultName@FURL@@2VFString@@A
 ?DefaultPort@FURL@@2HA
 ?DefaultPortal@FURL@@2VFString@@A
 ?DefaultProtocol@FURL@@2VFString@@A
 ?DefaultProtocolDescription@FURL@@2VFString@@A
 ?DefaultSaveExt@FURL@@2VFString@@A
 ?Describe@UActorChannel@@UAE?AVFString@@XZ
 ?Describe@UChannel@@UAE?AVFString@@XZ
 ?Describe@UControlChannel@@UAE?AVFString@@XZ
 ?Describe@UFileChannel@@UAE?AVFString@@XZ
 ?Destroy@AActor@@UAEXXZ
 ?Destroy@UActorChannel@@UAEXXZ
 ?Destroy@UC3DFLIC@@UAEXXZ
 ?Destroy@UC3DMESHSTATE@@UAEXXZ
 ?Destroy@UChannel@@UAEXXZ
 ?Destroy@UClient@@UAEXXZ
 ?Destroy@UControlChannel@@UAEXXZ
 ?Destroy@UEngine@@UAEXXZ
 ?Destroy@UFileChannel@@UAEXXZ
 ?Destroy@UFliTexture@@UAEXXZ
 ?Destroy@UGameEngine@@UAEXXZ
 ?Destroy@ULevel@@UAEXXZ
 ?Destroy@ULevelBase@@UAEXXZ
 ?Destroy@UMesh@@UAEXXZ
 ?Destroy@UMusic@@UAEXXZ
 ?Destroy@UNetConnection@@UAEXXZ
 ?Destroy@UNetDriver@@UAEXXZ
 ?Destroy@UPlayer@@UAEXXZ
 ?Destroy@UScriptedTexture@@UAEXXZ
 ?Destroy@USound@@UAEXXZ
 ?Destroy@UTexture@@UAEXXZ
 ?Destroy@UViewport@@UAEXXZ
 ?DestroyActor@ULevel@@UAEHPAVAActor@@HH@Z
 ?DetailChange@ULevel@@UAEXH@Z
 ?DetermineAlter@ACTVE_ChainSpark@@QAEXXZ
 ?DialogLine@ACTVE_Dialog@@QAEXPBD@Z
 ?DoJumps@ACTVE_ChainSpark@@QAE_NXZ
 ?DocumentLine@ACTVE_Document@@QAEXPBD@Z
 ?Draw2DClippedLine@URenderDevice@@UAEXPAUFSceneNode@@VFPlane@@KVFVector@@2@Z
 ?Draw3DLine@URenderDevice@@UAEXPAUFSceneNode@@VFPlane@@KVFVector@@2@Z
 ?Draw@ACTVE_Spline@@QAEXPAVUViewport@@PAUFSceneNode@@@Z
 ?Draw@UGameEngine@@UAEXPAVUViewport@@HPAEPAH@Z
 ?DrawIcon@UCanvas@@UAEXPAVUTexture@@MMMMPAVFSpanBuffer@@MVFPlane@@2K@Z
 ?DrawPattern@UCanvas@@UAEXPAVUTexture@@MMMMMMMPAVFSpanBuffer@@MVFPlane@@2K@Z
 ?DrawStats@URenderDevice@@UAEXPAUFSceneNode@@@Z
 ?DrawTile@UCanvas@@UAEXPAVUTexture@@MMMMMMMMPAVFSpanBuffer@@MVFPlane@@2K@Z
 ?DrawTile@UScriptedTexture@@QAEXMMMMMMMMPAVUTexture@@PAUFTextureInfo@@HHE@Z
 ?DropToFloor@ULevel@@UAEHPAVAActor@@@Z
 ?DumpScreen@UViewport@@QAEXPADH@Z
 ?ENGINE_Accept@@3VFName@@A
 ?ENGINE_AcceptInventory@@3VFName@@A
 ?ENGINE_ActorEntered@@3VFName@@A
 ?ENGINE_ActorLeaving@@3VFName@@A
 ?ENGINE_AlarmTriggered@@3VFName@@A
 ?ENGINE_AlterDestination@@3VFName@@A
 ?ENGINE_AnimEnd@@3VFName@@A
 ?ENGINE_Attach@@3VFName@@A
 ?ENGINE_BaseChange@@3VFName@@A
 ?ENGINE_BeamDown@@3VFName@@A
 ?ENGINE_BeginEvent@@3VFName@@A
 ?ENGINE_BeginPlay@@3VFName@@A
 ?ENGINE_BotDesireability@@3VFName@@A
 ?ENGINE_BroadcastLocalizedMessage@@3VFName@@A
 ?ENGINE_BroadcastMessage@@3VFName@@A
 ?ENGINE_Bump2@@3VFName@@A
 ?ENGINE_Bump@@3VFName@@A
 ?ENGINE_C3DAnimEnd@@3VFName@@A
 ?ENGINE_C3DPreRender@@3VFName@@A
 ?ENGINE_C3DSpeechEvent@@3VFName@@A
 ?ENGINE_CanBeamDownItems@@3VFName@@A
 ?ENGINE_CanIEnterMovementConstraint@@3VFName@@A
 ?ENGINE_CanIExitMovementConstraint@@3VFName@@A
 ?ENGINE_CanIShutYouDown@@3VFName@@A
 ?ENGINE_ChangePhysics@@3VFName@@A
 ?ENGINE_ChestZoneChange@@3VFName@@A
 ?ENGINE_ClientHearSound@@3VFName@@A
 ?ENGINE_ClientMessage@@3VFName@@A
 ?ENGINE_ClientTravel@@3VFName@@A
 ?ENGINE_CloseToBajoranSurvivor@@3VFName@@A
 ?ENGINE_CommunicationBlocked@@3VFName@@A
 ?ENGINE_DefineImage@@3VFName@@A
 ?ENGINE_DemoPlaySound@@3VFName@@A
 ?ENGINE_Destroyed@@3VFName@@A
 ?ENGINE_Detach@@3VFName@@A
 ?ENGINE_DetailChange@@3VFName@@A
 ?ENGINE_DialogCompleted@@3VFName@@A
 ?ENGINE_DisplayText@@3VFName@@A
 ?ENGINE_DoEvent@@3VFName@@A
 ?ENGINE_DoSpecialEvent@@3VFName@@A
 ?ENGINE_DrawLoadGameFile@@3VFName@@A
 ?ENGINE_EncroachedBy@@3VFName@@A
 ?ENGINE_EncroachingOn@@3VFName@@A
 ?ENGINE_EndEvent@@3VFName@@A
 ?ENGINE_EndedRotation@@3VFName@@A
 ?ENGINE_EnemyIsA@@3VFName@@A
 ?ENGINE_EnemyIsIntelligent@@3VFName@@A
 ?ENGINE_EnemyNotVisible@@3VFName@@A
 ?ENGINE_Expired@@3VFName@@A
 ?ENGINE_Falling@@3VFName@@A
 ?ENGINE_FellOutOfWorld@@3VFName@@A
 ?ENGINE_FootZoneChange@@3VFName@@A
 ?ENGINE_ForceGenerate@@3VFName@@A
 ?ENGINE_FoundDocument@@3VFName@@A
 ?ENGINE_FriendClose@@3VFName@@A
 ?ENGINE_GainedChild@@3VFName@@A
 ?ENGINE_GameEnding@@3VFName@@A
 ?ENGINE_Generate@@3VFName@@A
 ?ENGINE_GetBeaconText@@3VFName@@A
 ?ENGINE_GetSpeakerActor@@3VFName@@A
 ?ENGINE_HasAmmo@@3VFName@@A
 ?ENGINE_HasItem@@3VFName@@A
 ?ENGINE_HeadZoneChange@@3VFName@@A
 ?ENGINE_HearNoise@@3VFName@@A
 ?ENGINE_HitWall@@3VFName@@A
 ?ENGINE_HudEvent@@3VFName@@A
 ?ENGINE_HudLoadFile@@3VFName@@A
 ?ENGINE_HudMessage@@3VFName@@A
 ?ENGINE_HudText@@3VFName@@A
 ?ENGINE_InBeamDownZone@@3VFName@@A
 ?ENGINE_InitGame@@3VFName@@A
 ?ENGINE_InterpolateEnd@@3VFName@@A
 ?ENGINE_IsActorAnEnemy@@3VFName@@A
 ?ENGINE_IsCommunicationActive@@3VFName@@A
 ?ENGINE_IsLetterBoxOn@@3VFName@@A
 ?ENGINE_IsPlayer@@3VFName@@A
 ?ENGINE_ItemReady@@3VFName@@A
 ?ENGINE_KillCredit@@3VFName@@A
 ?ENGINE_KillDialogDisplay@@3VFName@@A
 ?ENGINE_KilledBy@@3VFName@@A
 ?ENGINE_Landed@@3VFName@@A
 ?ENGINE_LoadText@@3VFName@@A
 ?ENGINE_LogGameSpecial@@3VFName@@A
 ?ENGINE_Login@@3VFName@@A
 ?ENGINE_LongFall@@3VFName@@A
 ?ENGINE_LostChild@@3VFName@@A
 ?ENGINE_LowAmmo@@3VFName@@A
 ?ENGINE_LowHealth@@3VFName@@A
 ?ENGINE_LowShield@@3VFName@@A
 ?ENGINE_MayFall@@3VFName@@A
 ?ENGINE_ObjectiveCompleted@@3VFName@@A
 ?ENGINE_OpsLevel@@3VFName@@A
 ?ENGINE_PainTimer@@3VFName@@A
 ?ENGINE_Pause@@3VFName@@A
 ?ENGINE_PawnPlayerEnemy@@3VFName@@A
 ?ENGINE_PawnSurrenderOrPray@@3VFName@@A
 ?ENGINE_PlayDialog@@3VFName@@A
 ?ENGINE_PlayDialogAnim@@3VFName@@A
 ?ENGINE_PlayDummySound@@3VFName@@A
 ?ENGINE_PlayFoleySound@@3VFName@@A
 ?ENGINE_PlaySound@@3VFName@@A
 ?ENGINE_PlaySpeech@@3VFName@@A
 ?ENGINE_PlayerCalcView@@3VFName@@A
 ?ENGINE_PlayerFaceEnemy@@3VFName@@A
 ?ENGINE_PlayerHoldingWeapon@@3VFName@@A
 ?ENGINE_PlayerInPlace@@3VFName@@A
 ?ENGINE_PlayerInput@@3VFName@@A
 ?ENGINE_PlayerTick@@3VFName@@A
 ?ENGINE_PlayerTimeout@@3VFName@@A
 ?ENGINE_Poisoned@@3VFName@@A
 ?ENGINE_Possess@@3VFName@@A
 ?ENGINE_PostBeginPlay@@3VFName@@A
 ?ENGINE_PostLogin@@3VFName@@A
 ?ENGINE_PostRender@@3VFName@@A
 ?ENGINE_PostTeleport@@3VFName@@A
 ?ENGINE_PostTouch@@3VFName@@A
 ?ENGINE_PreBeginPlay@@3VFName@@A
 ?ENGINE_PreClientTravel@@3VFName@@A
 ?ENGINE_PreLogin@@3VFName@@A
 ?ENGINE_PreRender@@3VFName@@A
 ?ENGINE_PreTeleport@@3VFName@@A
 ?ENGINE_ProxyAnimEnd@@3VFName@@A
 ?ENGINE_ProxyC3DAnimEnd@@3VFName@@A
 ?ENGINE_ProxyTick@@3VFName@@A
 ?ENGINE_ReceiveLocalizedMessage@@3VFName@@A
 ?ENGINE_RenderOverlays@@3VFName@@A
 ?ENGINE_RenderTexture@@3VFName@@A
 ?ENGINE_RescuedMoreThan@@3VFName@@A
 ?ENGINE_SeePlayer@@3VFName@@A
 ?ENGINE_SendEvent@@3VFName@@A
 ?ENGINE_ServerTravel@@3VFName@@A
 ?ENGINE_SetColor@@3VFName@@A
 ?ENGINE_SetFontJust@@3VFName@@A
 ?ENGINE_SetFontSize@@3VFName@@A
 ?ENGINE_SetInitialState@@3VFName@@A
 ?ENGINE_SetPauseDelay@@3VFName@@A
 ?ENGINE_SetSpeaker@@3VFName@@A
 ?ENGINE_SetTitle@@3VFName@@A
 ?ENGINE_ShowUpgradeMenu@@3VFName@@A
 ?ENGINE_Spawned@@3VFName@@A
 ?ENGINE_SpecialCondition@@3VFName@@A
 ?ENGINE_SpecialCost@@3VFName@@A
 ?ENGINE_SpecialHandling@@3VFName@@A
 ?ENGINE_SpeechTimer@@3VFName@@A
 ?ENGINE_SwitchSection@@3VFName@@A
 ?ENGINE_TagExists@@3VFName@@A
 ?ENGINE_TakeDamage@@3VFName@@A
 ?ENGINE_TalkSound@@3VFName@@A
 ?ENGINE_TeamMessage@@3VFName@@A
 ?ENGINE_Tick@@3VFName@@A
 ?ENGINE_TimePassed@@3VFName@@A
 ?ENGINE_Timer@@3VFName@@A
 ?ENGINE_Touch@@3VFName@@A
 ?ENGINE_TouchingClass@@3VFName@@A
 ?ENGINE_TravelPostAccept@@3VFName@@A
 ?ENGINE_TravelPreAccept@@3VFName@@A
 ?ENGINE_Trigger@@3VFName@@A
 ?ENGINE_TurretTriggered@@3VFName@@A
 ?ENGINE_UnPossess@@3VFName@@A
 ?ENGINE_UnTouch@@3VFName@@A
 ?ENGINE_UnTrigger@@3VFName@@A
 ?ENGINE_UnderWaterSounds@@3VFName@@A
 ?ENGINE_Update@@3VFName@@A
 ?ENGINE_UpdateEyeHeight@@3VFName@@A
 ?ENGINE_UpdateHeadAnimation@@3VFName@@A
 ?ENGINE_UsingItem@@3VFName@@A
 ?ENGINE_WalkTexture@@3VFName@@A
 ?ENGINE_ZoneChange@@3VFName@@A
 ?EditorUpdate@ACTVE_Spline@@QAEXPAVUViewport@@PAUFSceneNode@@@Z
 ?EmptyModel@UModel@@QAEXHH@Z
 ?EndFlash@URenderDevice@@UAEXXZ
 ?EndTouch@AActor@@QAEXPAV1@H@Z
 ?Exec@UClient@@UAEHPBDAAVFOutputDevice@@@Z
 ?Exec@UDemoRecDriver@@UAEHPBDAAVFOutputDevice@@@Z
 ?Exec@UEngine@@UAEHPBDAAVFOutputDevice@@@Z
 ?Exec@UGameEngine@@UAEHPBDAAVFOutputDevice@@@Z
 ?Exec@UInput@@UAEHPBDAAVFOutputDevice@@@Z
 ?Exec@ULevel@@UAEHPBDAAVFOutputDevice@@@Z
 ?Exec@UNetConnection@@UAEHPBDAAVFOutputDevice@@@Z
 ?Exec@UNetDriver@@UAEHPBDAAVFOutputDevice@@@Z
 ?Exec@UPlayer@@UAEHPBDAAVFOutputDevice@@@Z
 ?Exec@URenderDevice@@UAEHPBDAAVFOutputDevice@@@Z
 ?Exec@UViewport@@UAEHPBDAAVFOutputDevice@@@Z
 ?ExecInputCommands@UInput@@MAEXPBDAAVFOutputDevice@@@Z
 ?ExecMacro@UViewport@@QAEXPBDAAVFOutputDevice@@@Z
 ?ExecuteHits@UViewport@@QAEXABUFHitCause@@PAEH@Z
 ?FBrightness@FColor@@QBEMXZ
 ?FGetHSV@@YA?AVFPlane@@EEE@Z
 ?Faces@FPoly@@QBEHABV1@@Z
 ?FarMoveActor@ULevel@@UAEHPAVAActor@@VFVector@@HH@Z
 ?FastLineCheck@UModel@@QAEEVFVector@@0@Z
 ?Finalize@FPoly@@QAEHH@Z
 ?FindAxisName@UInput@@MBEPAMPAVAActor@@PBD@Z
 ?FindBase@AActor@@QAEXXZ
 ?FindBestJump@APawn@@QAEHVFVector@@0AAV2@H@Z
 ?FindButtonName@UInput@@MBEPAEPAVAActor@@PBD@Z
 ?FindJumpUp@APawn@@QAEHVFVector@@0AAV2@H@Z
 ?FindKeyName@UInput@@UBEHPBDAAW4EInputKey@@@Z
 ?FindNearestVertex@UModel@@QBEMABVFVector@@AAV2@MAAH@Z
 ?FindSpot@ULevel@@UAEHVFVector@@AAV2@HH@Z
 ?First@URenderIterator@@UAEXXZ
 ?Fix@FPoly@@QAEHXZ
 ?FixPalette@UPalette@@QAEXXZ
 ?Flush@UClient@@UAEXXZ
 ?Flush@UEngine@@UAEXXZ
 ?FlushNet@UDemoRecConnection@@UAEXXZ
 ?FlushNet@UNetConnection@@UAEXXZ
 ?GCache@@3VFMemCache@@A
 ?GEngineMem@@3VFMemStack@@A
 ?GNewBrushTracker@@YAPAVFMovingBrushTrackerBase@@PAVULevel@@@Z
 ?GNewCollisionHash@@YAPAVFCollisionHashBase@@XZ
 ?Generate@ACTVE_ChainSpark@@QAEPAVUCTVE_MultiMesh@@XZ
 ?Generate@ACTVE_Sparks@@QAEPAVUCTVE_MultiMesh@@XZ
 ?Generate@ACTVE_Weather@@QAEPAVUCTVE_MultiMesh@@XZ
 ?Get@UTexture@@QAEPAV1@N@Z
 ?GetActor@UActorChannel@@QAEPAVAActor@@XZ
 ?GetActorExtent@FCollisionHash@@QAEXPAVAActor@@AAH11111@Z
 ?GetActorIndex@ULevel@@QAEHPAVAActor@@@Z
 ?GetAnimSeq@UMesh@@UAEPAUFMeshAnimSeq@@VFName@@@Z
 ?GetAnimSeq@UMesh@@UBEPBUFMeshAnimSeq@@VFName@@@Z
 ?GetChestLocation@ACTVE_PlayerPawn@@QAE?AVFVector@@V2@@Z
 ?GetClosestPathNodeList@ULevel@@UAEPAV?$TArray@UFPathNodeEntry@@@@VFVector@@M@Z
 ?GetCollisionBoundingBox@UModel@@UBE?AVFBox@@PBVAActor@@@Z
 ?GetCollisionBoundingBox@UPrimitive@@UBE?AVFBox@@PBVAActor@@@Z
 ?GetColors@UTexture@@QAEPAVFColor@@XZ
 ?GetColorsIndex@UTexture@@QAEKXZ
 ?GetCylinderExtent@AActor@@QBE?AVFVector@@XZ
 ?GetData@ACTVE_Spline@@QAE_NMPAPAV1@AAMAAVFVector@@AAVFRotator@@@Z
 ?GetDrawWorld@UConsole@@UAEHXZ
 ?GetDriver@UDemoRecConnection@@QAEPAVUDemoRecDriver@@XZ
 ?GetDriver@UNetConnection@@QAEPAVUNetDriver@@XZ
 ?GetDuration@USound@@QAEMXZ
 ?GetExtraTexturesPtr@UFliTexture@@UAEKPAPAVUTexture@@@Z
 ?GetExtraTexturesPtr@UTexture@@UAEKPAPAV1@@Z
 ?GetFROTATOR@@YAHPBD0AAVFRotator@@H@Z
 ?GetFROTATOR@@YAHPBDAAVFRotator@@H@Z
 ?GetFVECTOR@@YAHPBD0AAVFVector@@@Z
 ?GetFVECTOR@@YAHPBDAAVFVector@@@Z
 ?GetFrame@ULodMesh@@QAEXPAVFVector@@HVFCoords@@PAVAActor@@AAH@Z
 ?GetFrame@UMesh@@UAEXPAVFVector@@HVFCoords@@PAVAActor@@@Z
 ?GetHashIndices@FCollisionHash@@QAEXVFVector@@AAH11@Z
 ?GetHashLink@FCollisionHash@@QAEAAPAUFCollisionLink@1@HHHAAH@Z
 ?GetInputAction@UInput@@QAE?AW4EInputAction@@XZ
 ?GetInputDelta@UInput@@QAEMXZ
 ?GetKeyName@UInput@@UBEPBDW4EInputKey@@@Z
 ?GetLevel@AActor@@QBEPAVULevel@@XZ
 ?GetLevel@UDemoRecDriver@@QAEPAVULevel@@XZ
 ?GetLevelInfo@ULevel@@QAEPAVALevelInfo@@XZ
 ?GetLightMapIndex@UModel@@QAEPAVFLightMapIndex@@H@Z
 ?GetMaxTickRate@UEngine@@UAEMXZ
 ?GetMaxTickRate@UGameEngine@@UAEMXZ
 ?GetMip@UTexture@@UAEPAUFMipmapBase@@H@Z
 ?GetName@HActor@@QBEPBDXZ
 ?GetName@HBspSurf@@QBEPBDXZ
 ?GetName@HCoords@@QBEPBDXZ
 ?GetName@HHitProxy@@QBEPBDXZ
 ?GetNetPriority@AActor@@UAEMPAV1@MM@Z
 ?GetNetPriority@APawn@@UAEMPAVAActor@@MM@Z
 ?GetNodeHighPoint@ACTVE_PlayerPawn@@AAEMH@Z
 ?GetNodeXOffsets@ACTVE_PlayerPawn@@AAEXAAUFCheckResult@@AAM1@Z
 ?GetNumMips@UTexture@@QAEHXZ
 ?GetOptimizedRepList@AActor@@UAEPAHPAEPAUFPropertyRetirement@@PAHPAVUPackageMap@@@Z
 ?GetOptimizedRepList@AGameReplicationInfo@@UAEPAHPAEPAUFPropertyRetirement@@PAHPAVUPackageMap@@@Z
 ?GetOptimizedRepList@AInventory@@UAEPAHPAEPAUFPropertyRetirement@@PAHPAVUPackageMap@@@Z
 ?GetOptimizedRepList@AMover@@UAEPAHPAEPAUFPropertyRetirement@@PAHPAVUPackageMap@@@Z
 ?GetOptimizedRepList@APawn@@UAEPAHPAEPAUFPropertyRetirement@@PAHPAVUPackageMap@@@Z
 ?GetOptimizedRepList@APlayerPawn@@UAEPAHPAEPAUFPropertyRetirement@@PAHPAVUPackageMap@@@Z
 ?GetOptimizedRepList@APlayerReplicationInfo@@UAEPAHPAEPAUFPropertyRetirement@@PAHPAVUPackageMap@@@Z
 ?GetOptimizedRepList@AZoneInfo@@UAEPAHPAEPAUFPropertyRetirement@@PAHPAVUPackageMap@@@Z
 ?GetOption@FURL@@QBEPBDPBD0@Z
 ?GetOuterUClient@UViewport@@QBEPAVUClient@@XZ
 ?GetPeriod@FSoundData@@QAEMXZ
 ?GetPlayerPawn@AActor@@QBEPAVAPlayerPawn@@XZ
 ?GetPrimitive@AActor@@QBEPAVUPrimitive@@XZ
 ?GetRenderBoundingBox@UMesh@@UAE?AVFBox@@PBVAActor@@H@Z
 ?GetRenderBoundingBox@UModel@@UAE?AVFBox@@PBVAActor@@H@Z
 ?GetRenderBoundingBox@UPrimitive@@UAE?AVFBox@@PBVAActor@@H@Z
 ?GetRenderBoundingSphere@UMesh@@UAE?AVFSphere@@PBVAActor@@H@Z
 ?GetRenderBoundingSphere@UPrimitive@@UAE?AVFSphere@@PBVAActor@@H@Z
 ?GetSUBSTRING@@YAHPBD0PADH@Z
 ?GetServer@UViewport@@UAEPAXXZ
 ?GetSkin@AActor@@UAEPAVUTexture@@H@Z
 ?GetStats@ULevel@@UAEXPAD@Z
 ?GetSurfaceInfo@ACTVE_PlayerPawn@@AAEXAAUFCheckResult@@AAH1AAW4ESurfaceHitType@@@Z
 ?GetTexture@UMesh@@UAEPAVUTexture@@HPAVAActor@@@Z
 ?GetTopOwner@AActor@@QAEPAV1@XZ
 ?GetViewRotation@AActor@@QAE?AVFRotator@@XZ
 ?GetViewZone@APlayerPawn@@UAEHHPBVUModel@@@Z
 ?GetZoneActor@ULevel@@QAEPAVAZoneInfo@@H@Z
 ?HandleClientPlayer@UDemoRecConnection@@UAEXPAVAPlayerPawn@@@Z
 ?HandleClientPlayer@UNetConnection@@UAEXPAVAPlayerPawn@@@Z
 ?HandleJumping@ACTVE_ChainSpark@@QAEXM@Z
 ?HandleSpecial@APawn@@QAEXAAPAVAActor@@@Z
 ?HasOption@FURL@@QBEHPBD@Z
 ?HashX@FCollisionHash@@2PAHA
 ?HashY@FCollisionHash@@2PAHA
 ?HashZ@FCollisionHash@@2PAHA
 ?HeckbertQuantize@@YAHPAXPAEPAGHHHHHKH@Z
 ?HermiteInterpolation@ACTVE_Spline@@QAE?AVFVector@@MAAV2@000@Z
 ?HiColor555@FColor@@QBEGXZ
 ?HiColor565@FColor@@QBEGXZ
 ?IncrementLogs@AActor@@UAEXXZ
 ?IncrementWarnings@AActor@@UAEXXZ
 ?Init@FPoly@@QAEXXZ
 ?Init@FReachSpec@@QAEXXZ
 ?Init@UActorChannel@@UAEXPAVUNetConnection@@HH@Z
 ?Init@UCanvas@@UAEXPAVUViewport@@@Z
 ?Init@UChannel@@UAEXPAVUNetConnection@@HH@Z
 ?Init@UClient@@UAEXPAVUEngine@@@Z
 ?Init@UControlChannel@@UAEXPAVUNetConnection@@HH@Z
 ?Init@UEngine@@UAEXXZ
 ?Init@UFileChannel@@UAEXPAVUNetConnection@@HH@Z
 ?Init@UFliTexture@@UAEXHH@Z
 ?Init@UGameEngine@@UAEXXZ
 ?Init@UInput@@UAEXPAVUViewport@@@Z
 ?Init@URenderBase@@UAEXPAVUEngine@@@Z
 ?Init@URenderIterator@@UAEXPAVAPlayerPawn@@@Z
 ?Init@UScriptedTexture@@UAEXHH@Z
 ?Init@UTexture@@UAEXHH@Z
 ?InitAudio@UEngine@@QAEXXZ
 ?InitBase@UDemoRecDriver@@QAEHHPAVFNetworkNotify@@AAVFURL@@AAVFString@@@Z
 ?InitConnect@UDemoRecDriver@@UAEHPAVFNetworkNotify@@AAVFURL@@AAVFString@@@Z
 ?InitConnect@UNetDriver@@UAEHPAVFNetworkNotify@@AAVFURL@@AAVFString@@@Z
 ?InitExecution@AActor@@UAEXXZ
 ?InitListen@UDemoRecDriver@@UAEHPAVFNetworkNotify@@AAVFURL@@AAVFString@@@Z
 ?InitListen@UNetDriver@@UAEHPAVFNetworkNotify@@AAVFURL@@AAVFString@@@Z
 ?InitOut@UNetConnection@@UAEXXZ
 ?InitPosRotScale@ABrush@@UAEXXZ
 ?InitStats@ULevel@@UAEXXZ
 ?Inited@FCollisionHash@@2HA
 ?InputEvent@UEngine@@UAEHPAVUViewport@@W4EInputKey@@W4EInputAction@@M@Z
 ?InternalConstructor@AActor@@SAXPAX@Z
 ?InternalConstructor@ABrush@@SAXPAX@Z
 ?InternalConstructor@AButtonMarker@@SAXPAX@Z
 ?InternalConstructor@ACTVE_BeamFX@@SAXPAX@Z
 ?InternalConstructor@ACTVE_Camera@@SAXPAX@Z
 ?InternalConstructor@ACTVE_ChainSpark@@SAXPAX@Z
 ?InternalConstructor@ACTVE_Commander@@SAXPAX@Z
 ?InternalConstructor@ACTVE_Dialog@@SAXPAX@Z
 ?InternalConstructor@ACTVE_DialogInput@@SAXPAX@Z
 ?InternalConstructor@ACTVE_Director@@SAXPAX@Z
 ?InternalConstructor@ACTVE_Document@@SAXPAX@Z
 ?InternalConstructor@ACTVE_EXP_Smoke@@SAXPAX@Z
 ?InternalConstructor@ACTVE_Engine@@SAXPAX@Z
 ?InternalConstructor@ACTVE_Generator@@SAXPAX@Z
 ?InternalConstructor@ACTVE_Hud@@SAXPAX@Z
 ?InternalConstructor@ACTVE_InterpolationPoint@@SAXPAX@Z
 ?InternalConstructor@ACTVE_NavigationAssist@@SAXPAX@Z
 ?InternalConstructor@ACTVE_Particle@@SAXPAX@Z
 ?InternalConstructor@ACTVE_Pawn@@SAXPAX@Z
 ?InternalConstructor@ACTVE_PlayerPawn@@SAXPAX@Z
 ?InternalConstructor@ACTVE_PlayerStart@@SAXPAX@Z
 ?InternalConstructor@ACTVE_RenderConstraint@@SAXPAX@Z
 ?InternalConstructor@ACTVE_Sparks@@SAXPAX@Z
 ?InternalConstructor@ACTVE_Spline@@SAXPAX@Z
 ?InternalConstructor@ACTVE_Sprite@@SAXPAX@Z
 ?InternalConstructor@ACTVE_Tangent@@SAXPAX@Z
 ?InternalConstructor@ACTVE_TricorderInfo@@SAXPAX@Z
 ?InternalConstructor@ACTVE_Weather@@SAXPAX@Z
 ?InternalConstructor@ACamera@@SAXPAX@Z
 ?InternalConstructor@ACarcass@@SAXPAX@Z
 ?InternalConstructor@ADecal@@SAXPAX@Z
 ?InternalConstructor@ADecoration@@SAXPAX@Z
 ?InternalConstructor@AEffects@@SAXPAX@Z
 ?InternalConstructor@AGameInfo@@SAXPAX@Z
 ?InternalConstructor@AGameReplicationInfo@@SAXPAX@Z
 ?InternalConstructor@AHUD@@SAXPAX@Z
 ?InternalConstructor@AInfo@@SAXPAX@Z
 ?InternalConstructor@AInternetInfo@@SAXPAX@Z
 ?InternalConstructor@AInterpolationPoint@@SAXPAX@Z
 ?InternalConstructor@AInventory@@SAXPAX@Z
 ?InternalConstructor@AInventorySpot@@SAXPAX@Z
 ?InternalConstructor@AKeypoint@@SAXPAX@Z
 ?InternalConstructor@ALevelInfo@@SAXPAX@Z
 ?InternalConstructor@ALiftCenter@@SAXPAX@Z
 ?InternalConstructor@ALiftExit@@SAXPAX@Z
 ?InternalConstructor@ALight@@SAXPAX@Z
 ?InternalConstructor@AMenu@@SAXPAX@Z
 ?InternalConstructor@AMover@@SAXPAX@Z
 ?InternalConstructor@AMutator@@SAXPAX@Z
 ?InternalConstructor@ANavigationPoint@@SAXPAX@Z
 ?InternalConstructor@APathNode@@SAXPAX@Z
 ?InternalConstructor@APawn@@SAXPAX@Z
 ?InternalConstructor@APlayerPawn@@SAXPAX@Z
 ?InternalConstructor@APlayerReplicationInfo@@SAXPAX@Z
 ?InternalConstructor@APlayerStart@@SAXPAX@Z
 ?InternalConstructor@AProjectile@@SAXPAX@Z
 ?InternalConstructor@AReplicationInfo@@SAXPAX@Z
 ?InternalConstructor@ASavedMove@@SAXPAX@Z
 ?InternalConstructor@AScout@@SAXPAX@Z
 ?InternalConstructor@ASkyZoneInfo@@SAXPAX@Z
 ?InternalConstructor@ASpecialEvent@@SAXPAX@Z
 ?InternalConstructor@AStatLog@@SAXPAX@Z
 ?InternalConstructor@AStatLogFile@@SAXPAX@Z
 ?InternalConstructor@ATeleporter@@SAXPAX@Z
 ?InternalConstructor@ATimeDemo@@SAXPAX@Z
 ?InternalConstructor@ATrigger@@SAXPAX@Z
 ?InternalConstructor@ATriggerLight@@SAXPAX@Z
 ?InternalConstructor@ATriggerMarker@@SAXPAX@Z
 ?InternalConstructor@ATriggers@@SAXPAX@Z
 ?InternalConstructor@AWarpZoneInfo@@SAXPAX@Z
 ?InternalConstructor@AWarpZoneMarker@@SAXPAX@Z
 ?InternalConstructor@AWeapon@@SAXPAX@Z
 ?InternalConstructor@AZoneInfo@@SAXPAX@Z
 ?InternalConstructor@Alocationid@@SAXPAX@Z
 ?InternalConstructor@UActorChannel@@SAXPAX@Z
 ?InternalConstructor@UBspNodes@@SAXPAX@Z
 ?InternalConstructor@UBspSurfs@@SAXPAX@Z
 ?InternalConstructor@UC3DFLIC@@SAXPAX@Z
 ?InternalConstructor@UC3DMESHSTATE@@SAXPAX@Z
 ?InternalConstructor@UCTVE_DllObject@@SAXPAX@Z
 ?InternalConstructor@UCTVE_MultiMesh@@SAXPAX@Z
 ?InternalConstructor@UCanvas@@SAXPAX@Z
 ?InternalConstructor@UConsole@@SAXPAX@Z
 ?InternalConstructor@UControlChannel@@SAXPAX@Z
 ?InternalConstructor@UDemoRecConnection@@SAXPAX@Z
 ?InternalConstructor@UDemoRecDriver@@SAXPAX@Z
 ?InternalConstructor@UFileChannel@@SAXPAX@Z
 ?InternalConstructor@UFliTexture@@SAXPAX@Z
 ?InternalConstructor@UFont@@SAXPAX@Z
 ?InternalConstructor@UGameEngine@@SAXPAX@Z
 ?InternalConstructor@UInput@@SAXPAX@Z
 ?InternalConstructor@ULevel@@SAXPAX@Z
 ?InternalConstructor@ULevelSummary@@SAXPAX@Z
 ?InternalConstructor@ULodMesh@@SAXPAX@Z
 ?InternalConstructor@UMesh@@SAXPAX@Z
 ?InternalConstructor@UModel@@SAXPAX@Z
 ?InternalConstructor@UMusic@@SAXPAX@Z
 ?InternalConstructor@UPackageMapLevel@@SAXPAX@Z
 ?InternalConstructor@UPalette@@SAXPAX@Z
 ?InternalConstructor@UPolys@@SAXPAX@Z
 ?InternalConstructor@UPrimitive@@SAXPAX@Z
 ?InternalConstructor@URenderIterator@@SAXPAX@Z
 ?InternalConstructor@UScriptedTexture@@SAXPAX@Z
 ?InternalConstructor@USound@@SAXPAX@Z
 ?InternalConstructor@UTexture@@SAXPAX@Z
 ?InternalConstructor@UVectors@@SAXPAX@Z
 ?InternalConstructor@UVerts@@SAXPAX@Z
 ?InterpolateToAngle@AActor@@QAEMMMM@Z
 ?InterpolateViewport@ACTVE_Spline@@QAEXPAVUViewport@@PAUFSceneNode@@@Z
 ?InvertMMBlock@ACTVE_Weather@@QAEXPAVUCTVE_MultiMesh@@H@Z
 ?InvertMMRadius@ACTVE_Weather@@QAEXPAVUCTVE_MultiMesh@@H@Z
 ?IsA@HActor@@UBEHPBD@Z
 ?IsA@HBspSurf@@UBEHPBD@Z
 ?IsA@HCoords@@UBEHPBD@Z
 ?IsA@HHitProxy@@UBEHPBD@Z
 ?IsActorVisible@APlayerPawn@@UAE_NPBVAActor@@@Z
 ?IsAnimating@AActor@@QBEHXZ
 ?IsBackfaced@FPoly@@QBEHABVFVector@@@Z
 ?IsBasedOn@AActor@@QBEHPBV1@@Z
 ?IsBlockedBy@AActor@@QBEHPBV1@@Z
 ?IsBrush@AActor@@QBEHXZ
 ?IsCoplanar@FPoly@@QBEHABV1@@Z
 ?IsDone@URenderIterator@@UAE_NXZ
 ?IsInZone@AActor@@QBEHPBVAZoneInfo@@@Z
 ?IsInternal@FURL@@QBEHXZ
 ?IsKnownChannelType@UChannel@@SAHH@Z
 ?IsLocalInternal@FURL@@QBEHXZ
 ?IsMovingBrush@AActor@@QBEHXZ
 ?IsNetReady@UChannel@@QAEHH@Z
 ?IsNetReady@UDemoRecConnection@@UAEHH@Z
 ?IsNetReady@UNetConnection@@UAEHH@Z
 ?IsOrtho@UViewport@@QAEHXZ
 ?IsOverlapping@AActor@@QBEHPBV1@@Z
 ?IsOwnedBy@AActor@@QBEHPBV1@@Z
 ?IsPendingKill@AActor@@UAEHXZ
 ?IsPlayer@AActor@@QBEHXZ
 ?IsRealtime@UViewport@@QAEHXZ
 ?IsServer@ULevel@@UAEHXZ
 ?IsStaticBrush@AActor@@QBEHXZ
 ?IsSurfVisible@APlayerPawn@@UAE_NPBVFBspNode@@HPBVFBspSurf@@@Z
 ?IsWire@UViewport@@QAEHXZ
 ?IsZoneVisible@APlayerPawn@@UAE_NH@Z
 ?Key@UEngine@@UAEHPAVUViewport@@W4EInputKey@@@Z
 ?KeyDown@UInput@@QAEEH@Z
 ?LifeFraction@AActor@@QAEMXZ
 ?LineCheck@UMesh@@UAEHAAUFCheckResult@@PAVAActor@@VFVector@@22K@Z
 ?LineCheck@UModel@@UAEHAAUFCheckResult@@PAVAActor@@VFVector@@22K@Z
 ?LineCheck@UPrimitive@@UAEHAAUFCheckResult@@PAVAActor@@VFVector@@22K@Z
 ?LineOfSightTo@APawn@@QAEKPAVAActor@@H@Z
 ?Listen@ULevel@@UAEHAAVFString@@@Z
 ?Load@FSoundData@@UAEXXZ
 ?Load@FTextureInfo@@QAEXXZ
 ?LoadMap@UGameEngine@@UAEPAVULevel@@ABVFURL@@PAVUPendingLevel@@PBV?$TMap@VFString@@V1@@@AAVFString@@@Z
 ?LoadURLConfig@FURL@@QAEXPBD0@Z
 ?LocalizeGeneral@AActor@@QAEXXZ
 ?LocalizeSpecial@AActor@@QAEXXZ
 ?Lock@UTexture@@UAEXAAUFTextureInfo@@NHPAVURenderDevice@@@Z
 ?Lock@UViewport@@UAEHVFPlane@@00KPAEPAH@Z
 ?LowLevelDescribe@UDemoRecConnection@@UAE?AVFString@@XZ
 ?LowLevelDestroy@UDemoRecDriver@@UAEXXZ
 ?LowLevelGetNetworkNumber@UDemoRecDriver@@UAE?AVFString@@XZ
 ?LowLevelGetRemoteAddress@UDemoRecConnection@@UAE?AVFString@@XZ
 ?LowLevelSend@UDemoRecConnection@@UAEXPAXH@Z
 ?MakeGhostActor@ULevel@@UAEHPAVAActor@@@Z
 ?MarkDeleted@UCTVE_DllObject@@QAEXXZ
 ?MaxSendBytes@UChannel@@QAEHXZ
 ?Modify@ULevel@@UAEXH@Z
 ?Modify@UModel@@QAEXH@Z
 ?ModifyAllSurfs@UModel@@QAEXH@Z
 ?ModifySelectedSurfs@UModel@@QAEXH@Z
 ?ModifySurf@UModel@@QAEXHH@Z
 ?MonsterPath@FReachSpec@@QAEHPAVULevel@@@Z
 ?MouseDelta@UGameEngine@@UAEXPAVUViewport@@KMM@Z
 ?MousePosition@UGameEngine@@UAEXPAVUViewport@@KMM@Z
 ?MousePosition@UTexture@@UAEXKMM@Z
 ?MoveActor@ULevel@@UAEHPAVAActor@@VFVector@@VFRotator@@AAUFCheckResult@@HHHH@Z
 ?MultiLineCheck@ULevel@@UAEPAUFCheckResult@@AAVFMemStack@@VFVector@@11HPAVALevelInfo@@E@Z
 ?MultiPointCheck@ULevel@@UAEPAUFCheckResult@@AAVFMemStack@@VFVector@@1KPAVALevelInfo@@H@Z
 ?NativeAddToHead@UCTVE_DllObject@@AAEXPAV1@@Z
 ?NativeCreate@UCTVE_DllObject@@QAEPAVUCTVE_MultiMesh@@PAVAActor@@@Z
 ?NativeRemove@UCTVE_DllObject@@AAEXXZ
 ?Next@URenderIterator@@UAEXXZ
 ?NotifyAcceptedConnection@ULevel@@UAEXPAVUNetConnection@@@Z
 ?NotifyAcceptingChannel@ULevel@@UAEHPAVUChannel@@@Z
 ?NotifyAcceptingConnection@ULevel@@UAE?AW4EAcceptConnection@@XZ
 ?NotifyActorDestroyed@UNetDriver@@UAEXPAVAActor@@@Z
 ?NotifyGetLevel@ULevel@@UAEPAV1@XZ
 ?NotifyLevelChange@UGameEngine@@UAEXXZ
 ?NotifyProgress@ULevelBase@@UAEXPBD0M@Z
 ?NotifyReceivedFile@ULevel@@UAEXPAVUNetConnection@@HPBD@Z
 ?NotifyReceivedText@ULevel@@UAEXPAVUNetConnection@@PBD@Z
 ?NotifySendingFile@ULevel@@UAEHPAVUNetConnection@@VFGuid@@@Z
 ?PaintProgress@UGameEngine@@UAEXXZ
 ?PawnAmbient@ACTVE_DialogInput@@QAE_NPAVACTVE_Pawn@@@Z
 ?PawnBattleCry@ACTVE_DialogInput@@QAE_NPAVACTVE_Pawn@@@Z
 ?PawnDied@ACTVE_DialogInput@@QAE_NPAVACTVE_Pawn@@@Z
 ?PawnFirstHearEnemy@ACTVE_DialogInput@@QAE_NPAVACTVE_Pawn@@@Z
 ?PawnFirstSeeEnemy@ACTVE_DialogInput@@QAE_NPAVACTVE_Pawn@@@Z
 ?PawnGivePlayerItem@ACTVE_DialogInput@@QAE_NPAVACTVE_Pawn@@@Z
 ?PawnHurt@ACTVE_DialogInput@@QAE_NPAVACTVE_Pawn@@@Z
 ?PawnInterrogate@ACTVE_DialogInput@@QAE_NPAVACTVE_Pawn@@@Z
 ?PawnKilledPlayer@ACTVE_DialogInput@@QAE_NPAVACTVE_Pawn@@@Z
 ?PawnLeadPlayer@ACTVE_DialogInput@@QAE_NPAVACTVE_Pawn@@@Z
 ?PawnLoseEnemy@ACTVE_DialogInput@@QAE_NPAVACTVE_Pawn@@@Z
 ?PawnSeesPlayer@ACTVE_DialogInput@@QAE_NPAVACTVE_Pawn@@@Z
 ?PawnSurrenderOrPray@ACTVE_DialogInput@@QAE_NPAVACTVE_Pawn@@@Z
 ?PawnTalkToPlayer@ACTVE_DialogInput@@QAE_NPAVACTVE_Pawn@@@Z
 ?PickWallAdjust@APawn@@QAEHXZ
 ?Placeholder@URenderDevice@@UAEXXZ
 ?Plane@FColor@@QBE?AVFVector@@XZ
 ?PointCheck@UModel@@UAEHAAUFCheckResult@@PAVAActor@@VFVector@@2K@Z
 ?PointCheck@UPrimitive@@UAEHAAUFCheckResult@@PAVAActor@@VFVector@@2K@Z
 ?PointRegion@UModel@@QBE?AUFPointRegion@@PAVAZoneInfo@@VFVector@@@Z
 ?PopHit@UViewport@@QAEXH@Z
 ?PostEditChange@AActor@@UAEXXZ
 ?PostEditChange@AMover@@UAEXXZ
 ?PostEditChange@AZoneInfo@@UAEXXZ
 ?PostEditChange@UClient@@UAEXXZ
 ?PostEditChange@UScriptedTexture@@UAEXXZ
 ?PostEditMove@AActor@@UAEXXZ
 ?PostEditMove@AMover@@UAEXXZ
 ?PostLoad@AActor@@UAEXXZ
 ?PostLoad@ABrush@@UAEXXZ
 ?PostLoad@AMover@@UAEXXZ
 ?PostLoad@UFliTexture@@UAEXXZ
 ?PostLoad@ULevel@@UAEXXZ
 ?PostLoad@ULevelSummary@@UAEXXZ
 ?PostLoad@UModel@@UAEXXZ
 ?PostLoad@UMusic@@UAEXXZ
 ?PostLoad@UScriptedTexture@@UAEXXZ
 ?PostLoad@USound@@UAEXXZ
 ?PostLoad@UTexture@@UAEXXZ
 ?PostNetReceive@AActor@@UAEXXZ
 ?PostRaytrace@AActor@@UAEXXZ
 ?PostRaytrace@AMover@@UAEXXZ
 ?PostRender@UConsole@@UAEXPAUFSceneNode@@@Z
 ?PostSend@UNetConnection@@QAEXXZ
 ?PotentiallyVisible@UModel@@QAEHHH@Z
 ?PreNetReceive@AActor@@UAEXXZ
 ?PreProcess@UInput@@UAEHW4EInputKey@@W4EInputAction@@M@Z
 ?PreRaytrace@AActor@@UAEXXZ
 ?PreRaytrace@AMover@@UAEXXZ
 ?PreRender@UConsole@@UAEXPAUFSceneNode@@@Z
 ?PreSend@UNetConnection@@QAEXH@Z
 ?PrecacheTexture@URenderDevice@@UAEXAAUFTextureInfo@@K@Z
 ?PrecomputeSphereFilter@UModel@@QAEXABVFPlane@@@Z
 ?PrivateStaticClass@AActor@@0VUClass@@A
 ?PrivateStaticClass@ABrush@@0VUClass@@A
 ?PrivateStaticClass@AButtonMarker@@0VUClass@@A
 ?PrivateStaticClass@ACTVE_BeamFX@@0VUClass@@A
 ?PrivateStaticClass@ACTVE_Camera@@0VUClass@@A
 ?PrivateStaticClass@ACTVE_ChainSpark@@0VUClass@@A
 ?PrivateStaticClass@ACTVE_Commander@@0VUClass@@A
 ?PrivateStaticClass@ACTVE_Dialog@@0VUClass@@A
 ?PrivateStaticClass@ACTVE_DialogInput@@0VUClass@@A
 ?PrivateStaticClass@ACTVE_Director@@0VUClass@@A
 ?PrivateStaticClass@ACTVE_Document@@0VUClass@@A
 ?PrivateStaticClass@ACTVE_EXP_Smoke@@0VUClass@@A
 ?PrivateStaticClass@ACTVE_Engine@@0VUClass@@A
 ?PrivateStaticClass@ACTVE_Generator@@0VUClass@@A
 ?PrivateStaticClass@ACTVE_Hud@@0VUClass@@A
 ?PrivateStaticClass@ACTVE_InterpolationPoint@@0VUClass@@A
 ?PrivateStaticClass@ACTVE_NavigationAssist@@0VUClass@@A
 ?PrivateStaticClass@ACTVE_Particle@@0VUClass@@A
 ?PrivateStaticClass@ACTVE_Pawn@@0VUClass@@A
 ?PrivateStaticClass@ACTVE_PlayerPawn@@0VUClass@@A
 ?PrivateStaticClass@ACTVE_PlayerStart@@0VUClass@@A
 ?PrivateStaticClass@ACTVE_RenderConstraint@@0VUClass@@A
 ?PrivateStaticClass@ACTVE_Sparks@@0VUClass@@A
 ?PrivateStaticClass@ACTVE_Spline@@0VUClass@@A
 ?PrivateStaticClass@ACTVE_Sprite@@0VUClass@@A
 ?PrivateStaticClass@ACTVE_Tangent@@0VUClass@@A
 ?PrivateStaticClass@ACTVE_TricorderInfo@@0VUClass@@A
 ?PrivateStaticClass@ACTVE_Weather@@0VUClass@@A
 ?PrivateStaticClass@ACamera@@0VUClass@@A
 ?PrivateStaticClass@ACarcass@@0VUClass@@A
 ?PrivateStaticClass@ADecal@@0VUClass@@A
 ?PrivateStaticClass@ADecoration@@0VUClass@@A
 ?PrivateStaticClass@AEffects@@0VUClass@@A
 ?PrivateStaticClass@AGameInfo@@0VUClass@@A
 ?PrivateStaticClass@AGameReplicationInfo@@0VUClass@@A
 ?PrivateStaticClass@AHUD@@0VUClass@@A
 ?PrivateStaticClass@AInfo@@0VUClass@@A
 ?PrivateStaticClass@AInternetInfo@@0VUClass@@A
 ?PrivateStaticClass@AInterpolationPoint@@0VUClass@@A
 ?PrivateStaticClass@AInventory@@0VUClass@@A
 ?PrivateStaticClass@AInventorySpot@@0VUClass@@A
 ?PrivateStaticClass@AKeypoint@@0VUClass@@A
 ?PrivateStaticClass@ALevelInfo@@0VUClass@@A
 ?PrivateStaticClass@ALiftCenter@@0VUClass@@A
 ?PrivateStaticClass@ALiftExit@@0VUClass@@A
 ?PrivateStaticClass@ALight@@0VUClass@@A
 ?PrivateStaticClass@AMenu@@0VUClass@@A
 ?PrivateStaticClass@AMover@@0VUClass@@A
 ?PrivateStaticClass@AMutator@@0VUClass@@A
 ?PrivateStaticClass@ANavigationPoint@@0VUClass@@A
 ?PrivateStaticClass@APathNode@@0VUClass@@A
 ?PrivateStaticClass@APawn@@0VUClass@@A
 ?PrivateStaticClass@APlayerPawn@@0VUClass@@A
 ?PrivateStaticClass@APlayerReplicationInfo@@0VUClass@@A
 ?PrivateStaticClass@APlayerStart@@0VUClass@@A
 ?PrivateStaticClass@AProjectile@@0VUClass@@A
 ?PrivateStaticClass@AReplicationInfo@@0VUClass@@A
 ?PrivateStaticClass@ASavedMove@@0VUClass@@A
 ?PrivateStaticClass@AScout@@0VUClass@@A
 ?PrivateStaticClass@ASkyZoneInfo@@0VUClass@@A
 ?PrivateStaticClass@ASpecialEvent@@0VUClass@@A
 ?PrivateStaticClass@AStatLog@@0VUClass@@A
 ?PrivateStaticClass@AStatLogFile@@0VUClass@@A
 ?PrivateStaticClass@ATeleporter@@0VUClass@@A
 ?PrivateStaticClass@ATimeDemo@@0VUClass@@A
 ?PrivateStaticClass@ATrigger@@0VUClass@@A
 ?PrivateStaticClass@ATriggerLight@@0VUClass@@A
 ?PrivateStaticClass@ATriggerMarker@@0VUClass@@A
 ?PrivateStaticClass@ATriggers@@0VUClass@@A
 ?PrivateStaticClass@AWarpZoneInfo@@0VUClass@@A
 ?PrivateStaticClass@AWarpZoneMarker@@0VUClass@@A
 ?PrivateStaticClass@AWeapon@@0VUClass@@A
 ?PrivateStaticClass@AZoneInfo@@0VUClass@@A
 ?PrivateStaticClass@Alocationid@@0VUClass@@A
 ?PrivateStaticClass@UActorChannel@@0VUClass@@A
 ?PrivateStaticClass@UAudioSubsystem@@0VUClass@@A
 ?PrivateStaticClass@UBitmap@@0VUClass@@A
 ?PrivateStaticClass@UBspNodes@@0VUClass@@A
 ?PrivateStaticClass@UBspSurfs@@0VUClass@@A
 ?PrivateStaticClass@UC3DFLIC@@0VUClass@@A
 ?PrivateStaticClass@UC3DMESHSTATE@@0VUClass@@A
 ?PrivateStaticClass@UCTVE_DllObject@@0VUClass@@A
 ?PrivateStaticClass@UCTVE_MultiMesh@@0VUClass@@A
 ?PrivateStaticClass@UCanvas@@0VUClass@@A
 ?PrivateStaticClass@UChannel@@0VUClass@@A
 ?PrivateStaticClass@UClient@@0VUClass@@A
 ?PrivateStaticClass@UConsole@@0VUClass@@A
 ?PrivateStaticClass@UControlChannel@@0VUClass@@A
 ?PrivateStaticClass@UDemoRecConnection@@0VUClass@@A
 ?PrivateStaticClass@UDemoRecDriver@@0VUClass@@A
 ?PrivateStaticClass@UEngine@@0VUClass@@A
 ?PrivateStaticClass@UFileChannel@@0VUClass@@A
 ?PrivateStaticClass@UFliTexture@@0VUClass@@A
 ?PrivateStaticClass@UFont@@0VUClass@@A
 ?PrivateStaticClass@UGameEngine@@0VUClass@@A
 ?PrivateStaticClass@UInput@@0VUClass@@A
 ?PrivateStaticClass@ULevel@@0VUClass@@A
 ?PrivateStaticClass@ULevelBase@@0VUClass@@A
 ?PrivateStaticClass@ULevelSummary@@0VUClass@@A
 ?PrivateStaticClass@ULodMesh@@0VUClass@@A
 ?PrivateStaticClass@UMesh@@0VUClass@@A
 ?PrivateStaticClass@UModel@@0VUClass@@A
 ?PrivateStaticClass@UMusic@@0VUClass@@A
 ?PrivateStaticClass@UNetConnection@@0VUClass@@A
 ?PrivateStaticClass@UNetDriver@@0VUClass@@A
 ?PrivateStaticClass@UPackageMapLevel@@0VUClass@@A
 ?PrivateStaticClass@UPalette@@0VUClass@@A
 ?PrivateStaticClass@UPlayer@@0VUClass@@A
 ?PrivateStaticClass@UPolys@@0VUClass@@A
 ?PrivateStaticClass@UPrimitive@@0VUClass@@A
 ?PrivateStaticClass@URenderBase@@0VUClass@@A
 ?PrivateStaticClass@URenderDevice@@0VUClass@@A
 ?PrivateStaticClass@URenderIterator@@0VUClass@@A
 ?PrivateStaticClass@UScriptedTexture@@0VUClass@@A
 ?PrivateStaticClass@USound@@0VUClass@@A
 ?PrivateStaticClass@UTexture@@0VUClass@@A
 ?PrivateStaticClass@UVectors@@0VUClass@@A
 ?PrivateStaticClass@UVerts@@0VUClass@@A
 ?PrivateStaticClass@UViewport@@0VUClass@@A
 ?Process@UInput@@UAEHAAVFOutputDevice@@W4EInputKey@@W4EInputAction@@M@Z
 ?ProcessDemoRecFunction@AActor@@QAEXPAVUFunction@@PAXPAUFFrame@@@Z
 ?ProcessEvent@AActor@@UAEXPAVUFunction@@PAX1@Z
 ?ProcessRemoteFunction@AActor@@UAEHPAVUFunction@@PAXPAUFFrame@@@Z
 ?ProcessState@AActor@@UAEXM@Z
 ?Prune@FPathBuilder@@AAEHPAVAActor@@@Z
 ?PurgeAcks@UNetConnection@@QAEXXZ
 ?PushHit@UViewport@@QAEXABUHHitProxy@@H@Z
 ?RandomWeatherZone@ACTVE_Weather@@QAE?AVFVector@@XZ
 ?Reachable@APawn@@QAEHVFVector@@MPAVAActor@@@Z
 ?ReadInput@UInput@@UAEXMAAVFOutputDevice@@@Z
 ?ReadInput@UNetConnection@@UAEXM@Z
 ?ReadInput@UViewport@@UAEXM@Z
 ?ReceiveFile@UNetConnection@@QAEXH@Z
 ?ReceivedAcks@UChannel@@QAEXXZ
 ?ReceivedBunch@UActorChannel@@UAEXAAVFInBunch@@@Z
 ?ReceivedBunch@UControlChannel@@UAEXAAVFInBunch@@@Z
 ?ReceivedBunch@UFileChannel@@UAEXAAVFInBunch@@@Z
 ?ReceivedNak@UActorChannel@@UAEXH@Z
 ?ReceivedNak@UChannel@@UAEXH@Z
 ?ReceivedNak@UNetConnection@@QAEXH@Z
 ?ReceivedPacket@UNetConnection@@QAEXAAUFBitReader@@@Z
 ?ReceivedRawBunch@UChannel@@QAEXAAVFInBunch@@@Z
 ?ReceivedRawPacket@UNetConnection@@QAEXPAXH@Z
 ?ReceivedSequencedBunch@UChannel@@QAEHAAVFInBunch@@@Z
 ?RecomputeLighting@APlayerPawn@@UAE_NXZ
 ?ReconcileActors@ULevel@@UAEXXZ
 ?RememberActors@ULevel@@UAEXXZ
 ?RemoveActor@FCollisionHash@@UAEXPAVAActor@@@Z
 ?RemoveAudio@FAudioTracker@@QAEXH@Z
 ?RemoveColinears@FPoly@@QAEHXZ
 ?RemoveFromList@UCTVE_DllObject@@AAEXXZ
 ?ReplaceWithExisting@UPalette@@QAEPAV1@XZ
 ?ReplicateActor@UActorChannel@@QAEXXZ
 ?ResetInput@UInput@@UAEXXZ
 ?Reverse@FPoly@@QAEXXZ
 ?ReverseRouteFor@APawn@@QAEXPAVANavigationPoint@@@Z
 ?ReviveGhostActor@ULevel@@UAEHPAVAActor@@@Z
 ?RouteDestroy@UChannel@@QAEHXZ
 ?SaveGame@UGameEngine@@UAEXPBD@Z
 ?SaveURLConfig@FURL@@QBEXPBD00@Z
 ?Screen@FSceneNode@@QAEPAEHH@Z
 ?SendAck@UNetConnection@@UAEXHH@Z
 ?SendBunch@UChannel@@QAEHPAVFOutBunch@@H@Z
 ?SendPackageMap@UNetConnection@@QAEXXZ
 ?SendRawBunch@UNetConnection@@QAEHAAVFOutBunch@@H@Z
 ?Serialize@AActor@@UAEXAAVFArchive@@@Z
 ?Serialize@UBspNodes@@UAEXAAVFArchive@@@Z
 ?Serialize@UBspSurfs@@UAEXAAVFArchive@@@Z
 ?Serialize@UC3DFLIC@@UAEXAAVFArchive@@@Z
 ?Serialize@UC3DMESHSTATE@@UAEXAAVFArchive@@@Z
 ?Serialize@UClient@@UAEXAAVFArchive@@@Z
 ?Serialize@UConsole@@UAEXPBDW4EName@@@Z
 ?Serialize@UControlChannel@@UAEXPBDW4EName@@@Z
 ?Serialize@UEngine@@UAEXAAVFArchive@@@Z
 ?Serialize@UFliTexture@@UAEXAAVFArchive@@@Z
 ?Serialize@UFont@@UAEXAAVFArchive@@@Z
 ?Serialize@UGameEngine@@UAEXAAVFArchive@@@Z
 ?Serialize@UInput@@UAEXAAVFArchive@@@Z
 ?Serialize@ULevel@@UAEXAAVFArchive@@@Z
 ?Serialize@ULevelBase@@UAEXAAVFArchive@@@Z
 ?Serialize@ULodMesh@@UAEXAAVFArchive@@@Z
 ?Serialize@UMesh@@UAEXAAVFArchive@@@Z
 ?Serialize@UModel@@UAEXAAVFArchive@@@Z
 ?Serialize@UMusic@@UAEXAAVFArchive@@@Z
 ?Serialize@UNetConnection@@UAEXAAVFArchive@@@Z
 ?Serialize@UNetConnection@@UAEXPBDW4EName@@@Z
 ?Serialize@UNetDriver@@UAEXAAVFArchive@@@Z
 ?Serialize@UPalette@@UAEXAAVFArchive@@@Z
 ?Serialize@UPlayer@@UAEXAAVFArchive@@@Z
 ?Serialize@UPolys@@UAEXAAVFArchive@@@Z
 ?Serialize@UPrimitive@@UAEXAAVFArchive@@@Z
 ?Serialize@USound@@UAEXAAVFArchive@@@Z
 ?Serialize@UTexture@@UAEXAAVFArchive@@@Z
 ?Serialize@UVectors@@UAEXAAVFArchive@@@Z
 ?Serialize@UVerts@@UAEXAAVFArchive@@@Z
 ?Serialize@UViewport@@UAEXAAVFArchive@@@Z
 ?Serialize@UViewport@@UAEXPBDW4EName@@@Z
 ?SerializeObject@UPackageMapLevel@@UAEHAAVFArchive@@PAVUClass@@AAPAVUObject@@@Z
 ?ServerTickClient@ULevel@@UAEHPAVUNetConnection@@M@Z
 ?SetActorCollision@ULevel@@UAEXH@Z
 ?SetActorZone@ULevel@@UAEXPAVAActor@@HH@Z
 ?SetBase@AActor@@QAEXPAV1@H@Z
 ?SetBrushRaytraceKey@AMover@@UAEXXZ
 ?SetChannelActor@UActorChannel@@QAEXPAVAActor@@@Z
 ?SetClientTravel@UGameEngine@@UAEXPAVUPlayer@@PBDHW4ETravelType@@@Z
 ?SetClip@UCanvas@@UAEXHHHH@Z
 ?SetClosingFlag@UActorChannel@@UAEXXZ
 ?SetClosingFlag@UChannel@@UAEXXZ
 ?SetCollision@AActor@@QAEXHHH@Z
 ?SetCollisionSize@AActor@@QAEXMM@Z
 ?SetDrag@UViewport@@UAEHH@Z
 ?SetInputAction@UInput@@QAEXW4EInputAction@@M@Z
 ?SetOwner@AActor@@QAEXPAV1@@Z
 ?SetPlayer@APlayerPawn@@QAEXPAVUPlayer@@@Z
 ?SetProgress@UEngine@@UAEXPBD0M@Z
 ?SetProgress@UGameEngine@@UAEXPBD0M@Z
 ?SetRouteCache@APawn@@QAEXPAVANavigationPoint@@@Z
 ?SetScale@ULodMesh@@UAEXVFVector@@@Z
 ?SetScale@UMesh@@UAEXVFVector@@@Z
 ?SetSceneNode@URenderDevice@@UAEXPAUFSceneNode@@@Z
 ?SetWorldRaytraceKey@AMover@@UAEXXZ
 ?ShowSelf@APawn@@QAEXXZ
 ?ShrinkLevel@ULevel@@UAEXXZ
 ?ShrinkModel@UModel@@QAEXXZ
 ?ShutDown@AActor@@QAEHXZ
 ?SingleLineCheck@ULevel@@UAEHAAUFCheckResult@@PAVAActor@@ABVFVector@@2KV4@E@Z
 ?SinglePointCheck@ULevel@@UAEHAAUFCheckResult@@VFVector@@1KPAVALevelInfo@@H@Z
 ?SlowAssertValid@UNetConnection@@QAEXXZ
 ?SpawnActor@ULevel@@UAEPAVAActor@@PAVUClass@@VFName@@PAV2@2VFVector@@VFRotator@@2HH2@Z
 ?SpawnBrush@ULevel@@UAEPAVABrush@@XZ
 ?SpawnDemoRecSpectator@UDemoRecDriver@@QAEXPAVUNetConnection@@@Z
 ?SpawnPlayActor@ULevel@@UAEPAVAPlayerPawn@@PAVUPlayer@@W4ENetRole@@ABVFURL@@AAVFString@@@Z
 ?SpawnViewActor@ULevel@@UAEXPAVUViewport@@@Z
 ?Spawned@AActor@@UAEXXZ
 ?Spawned@AMover@@UAEXXZ
 ?Split@FPoly@@QAEHABVFVector@@0H@Z
 ?SplitInHalf@FPoly@@QAEXPAV1@@Z
 ?SplitWithNode@FPoly@@QBEHPBVUModel@@HPAV1@1H@Z
 ?SplitWithPlane@FPoly@@QBEHABVFVector@@0PAV1@1H@Z
 ?SplitWithPlaneFast@FPoly@@QBEHVFPlane@@PAV1@1@Z
 ?StaticClass@AActor@@SAPAVUClass@@XZ
 ?StaticClass@ABrush@@SAPAVUClass@@XZ
 ?StaticClass@AButtonMarker@@SAPAVUClass@@XZ
 ?StaticClass@ACTVE_BeamFX@@SAPAVUClass@@XZ
 ?StaticClass@ACTVE_Camera@@SAPAVUClass@@XZ
 ?StaticClass@ACTVE_ChainSpark@@SAPAVUClass@@XZ
 ?StaticClass@ACTVE_Commander@@SAPAVUClass@@XZ
 ?StaticClass@ACTVE_Dialog@@SAPAVUClass@@XZ
 ?StaticClass@ACTVE_DialogInput@@SAPAVUClass@@XZ
 ?StaticClass@ACTVE_Director@@SAPAVUClass@@XZ
 ?StaticClass@ACTVE_Document@@SAPAVUClass@@XZ
 ?StaticClass@ACTVE_EXP_Smoke@@SAPAVUClass@@XZ
 ?StaticClass@ACTVE_Engine@@SAPAVUClass@@XZ
 ?StaticClass@ACTVE_Generator@@SAPAVUClass@@XZ
 ?StaticClass@ACTVE_Hud@@SAPAVUClass@@XZ
 ?StaticClass@ACTVE_InterpolationPoint@@SAPAVUClass@@XZ
 ?StaticClass@ACTVE_NavigationAssist@@SAPAVUClass@@XZ
 ?StaticClass@ACTVE_Particle@@SAPAVUClass@@XZ
 ?StaticClass@ACTVE_Pawn@@SAPAVUClass@@XZ
 ?StaticClass@ACTVE_PlayerPawn@@SAPAVUClass@@XZ
 ?StaticClass@ACTVE_PlayerStart@@SAPAVUClass@@XZ
 ?StaticClass@ACTVE_RenderConstraint@@SAPAVUClass@@XZ
 ?StaticClass@ACTVE_Sparks@@SAPAVUClass@@XZ
 ?StaticClass@ACTVE_Spline@@SAPAVUClass@@XZ
 ?StaticClass@ACTVE_Sprite@@SAPAVUClass@@XZ
 ?StaticClass@ACTVE_Tangent@@SAPAVUClass@@XZ
 ?StaticClass@ACTVE_TricorderInfo@@SAPAVUClass@@XZ
 ?StaticClass@ACTVE_Weather@@SAPAVUClass@@XZ
 ?StaticClass@ACamera@@SAPAVUClass@@XZ
 ?StaticClass@ACarcass@@SAPAVUClass@@XZ
 ?StaticClass@ADecal@@SAPAVUClass@@XZ
 ?StaticClass@ADecoration@@SAPAVUClass@@XZ
 ?StaticClass@AEffects@@SAPAVUClass@@XZ
 ?StaticClass@AGameInfo@@SAPAVUClass@@XZ
 ?StaticClass@AGameReplicationInfo@@SAPAVUClass@@XZ
 ?StaticClass@AHUD@@SAPAVUClass@@XZ
 ?StaticClass@AInfo@@SAPAVUClass@@XZ
 ?StaticClass@AInternetInfo@@SAPAVUClass@@XZ
 ?StaticClass@AInterpolationPoint@@SAPAVUClass@@XZ
 ?StaticClass@AInventory@@SAPAVUClass@@XZ
 ?StaticClass@AInventorySpot@@SAPAVUClass@@XZ
 ?StaticClass@AKeypoint@@SAPAVUClass@@XZ
 ?StaticClass@ALevelInfo@@SAPAVUClass@@XZ
 ?StaticClass@ALiftCenter@@SAPAVUClass@@XZ
 ?StaticClass@ALiftExit@@SAPAVUClass@@XZ
 ?StaticClass@ALight@@SAPAVUClass@@XZ
 ?StaticClass@AMenu@@SAPAVUClass@@XZ
 ?StaticClass@AMover@@SAPAVUClass@@XZ
 ?StaticClass@AMutator@@SAPAVUClass@@XZ
 ?StaticClass@ANavigationPoint@@SAPAVUClass@@XZ
 ?StaticClass@APathNode@@SAPAVUClass@@XZ
 ?StaticClass@APawn@@SAPAVUClass@@XZ
 ?StaticClass@APlayerPawn@@SAPAVUClass@@XZ
 ?StaticClass@APlayerReplicationInfo@@SAPAVUClass@@XZ
 ?StaticClass@APlayerStart@@SAPAVUClass@@XZ
 ?StaticClass@AProjectile@@SAPAVUClass@@XZ
 ?StaticClass@AReplicationInfo@@SAPAVUClass@@XZ
 ?StaticClass@ASavedMove@@SAPAVUClass@@XZ
 ?StaticClass@AScout@@SAPAVUClass@@XZ
 ?StaticClass@ASkyZoneInfo@@SAPAVUClass@@XZ
 ?StaticClass@ASpecialEvent@@SAPAVUClass@@XZ
 ?StaticClass@AStatLog@@SAPAVUClass@@XZ
 ?StaticClass@AStatLogFile@@SAPAVUClass@@XZ
 ?StaticClass@ATeleporter@@SAPAVUClass@@XZ
 ?StaticClass@ATimeDemo@@SAPAVUClass@@XZ
 ?StaticClass@ATrigger@@SAPAVUClass@@XZ
 ?StaticClass@ATriggerLight@@SAPAVUClass@@XZ
 ?StaticClass@ATriggerMarker@@SAPAVUClass@@XZ
 ?StaticClass@ATriggers@@SAPAVUClass@@XZ
 ?StaticClass@AWarpZoneInfo@@SAPAVUClass@@XZ
 ?StaticClass@AWarpZoneMarker@@SAPAVUClass@@XZ
 ?StaticClass@AWeapon@@SAPAVUClass@@XZ
 ?StaticClass@AZoneInfo@@SAPAVUClass@@XZ
 ?StaticClass@Alocationid@@SAPAVUClass@@XZ
 ?StaticClass@UActorChannel@@SAPAVUClass@@XZ
 ?StaticClass@UAudioSubsystem@@SAPAVUClass@@XZ
 ?StaticClass@UBitmap@@SAPAVUClass@@XZ
 ?StaticClass@UBspNodes@@SAPAVUClass@@XZ
 ?StaticClass@UBspSurfs@@SAPAVUClass@@XZ
 ?StaticClass@UC3DFLIC@@SAPAVUClass@@XZ
 ?StaticClass@UC3DMESHSTATE@@SAPAVUClass@@XZ
 ?StaticClass@UCTVE_DllObject@@SAPAVUClass@@XZ
 ?StaticClass@UCTVE_MultiMesh@@SAPAVUClass@@XZ
 ?StaticClass@UCanvas@@SAPAVUClass@@XZ
 ?StaticClass@UChannel@@SAPAVUClass@@XZ
 ?StaticClass@UClient@@SAPAVUClass@@XZ
 ?StaticClass@UConsole@@SAPAVUClass@@XZ
 ?StaticClass@UControlChannel@@SAPAVUClass@@XZ
 ?StaticClass@UDemoRecConnection@@SAPAVUClass@@XZ
 ?StaticClass@UDemoRecDriver@@SAPAVUClass@@XZ
 ?StaticClass@UEngine@@SAPAVUClass@@XZ
 ?StaticClass@UFileChannel@@SAPAVUClass@@XZ
 ?StaticClass@UFliTexture@@SAPAVUClass@@XZ
 ?StaticClass@UFont@@SAPAVUClass@@XZ
 ?StaticClass@UGameEngine@@SAPAVUClass@@XZ
 ?StaticClass@UInput@@SAPAVUClass@@XZ
 ?StaticClass@ULevel@@SAPAVUClass@@XZ
 ?StaticClass@ULevelBase@@SAPAVUClass@@XZ
 ?StaticClass@ULevelSummary@@SAPAVUClass@@XZ
 ?StaticClass@ULodMesh@@SAPAVUClass@@XZ
 ?StaticClass@UMesh@@SAPAVUClass@@XZ
 ?StaticClass@UModel@@SAPAVUClass@@XZ
 ?StaticClass@UMusic@@SAPAVUClass@@XZ
 ?StaticClass@UNetConnection@@SAPAVUClass@@XZ
 ?StaticClass@UNetDriver@@SAPAVUClass@@XZ
 ?StaticClass@UPackageMapLevel@@SAPAVUClass@@XZ
 ?StaticClass@UPalette@@SAPAVUClass@@XZ
 ?StaticClass@UPlayer@@SAPAVUClass@@XZ
 ?StaticClass@UPolys@@SAPAVUClass@@XZ
 ?StaticClass@UPrimitive@@SAPAVUClass@@XZ
 ?StaticClass@URenderBase@@SAPAVUClass@@XZ
 ?StaticClass@URenderDevice@@SAPAVUClass@@XZ
 ?StaticClass@URenderIterator@@SAPAVUClass@@XZ
 ?StaticClass@UScriptedTexture@@SAPAVUClass@@XZ
 ?StaticClass@USound@@SAPAVUClass@@XZ
 ?StaticClass@UTexture@@SAPAVUClass@@XZ
 ?StaticClass@UVectors@@SAPAVUClass@@XZ
 ?StaticClass@UVerts@@SAPAVUClass@@XZ
 ?StaticClass@UViewport@@SAPAVUClass@@XZ
 ?StaticConfigName@UInput@@CAPBDXZ
 ?StaticConstructor@UActorChannel@@QAEXXZ
 ?StaticConstructor@UClient@@QAEXXZ
 ?StaticConstructor@UControlChannel@@QAEXXZ
 ?StaticConstructor@UDemoRecConnection@@QAEXXZ
 ?StaticConstructor@UDemoRecDriver@@QAEXXZ
 ?StaticConstructor@UEngine@@QAEXXZ
 ?StaticConstructor@UFileChannel@@QAEXXZ
 ?StaticConstructor@UGameEngine@@QAEXXZ
 ?StaticConstructor@UInput@@QAEXXZ
 ?StaticConstructor@UNetDriver@@QAEXXZ
 ?StaticConstructor@URenderDevice@@QAEXXZ
 ?StaticExit@FURL@@SAXXZ
 ?StaticInit@FURL@@SAXXZ
 ?StaticInitInput@UInput@@SAXXZ
 ?String@FURL@@QBE?AVFString@@H@Z
 ?StripExtension@AActor@@QAEPBDPBD@Z
 ?SuggestJumpVelocity@APawn@@QAEXVFVector@@AAV2@@Z
 ?Swim@ACTVE_PlayerPawn@@AAE_NAAVFVector@@AAUFCheckResult@@@Z
 ?Swim@APawn@@QAE_NAAVFVector@@AAUFCheckResult@@@Z
 ?TestCanSeeMe@AActor@@QAEHPAVAPlayerPawn@@@Z
 ?TestForHandHold@ACTVE_PlayerPawn@@AAE_NVFVector@@0@Z
 ?TestForHangLedge@ACTVE_PlayerPawn@@AAE_NVFVector@@AAV2@@Z
 ?TestForLedge@ACTVE_PlayerPawn@@AAE_NAAUFCheckResult@@VFVector@@AAM@Z
 ?TestForStrongLedgeFooting@ACTVE_PlayerPawn@@AAE_NVFVector@@0@Z
 ?TestHitIntegrity@ACTVE_PlayerPawn@@AAEXAAUFCheckResult@@AAVFVector@@MM@Z
 ?TestStepUp@ACTVE_PlayerPawn@@AAEMAAUFCheckResult@@MMVFVector@@11@Z
 ?Tick@AActor@@UAEHMW4ELevelTick@@@Z
 ?Tick@FCollisionHash@@UAEXXZ
 ?Tick@UActorChannel@@UAEXXZ
 ?Tick@UChannel@@UAEXXZ
 ?Tick@UFileChannel@@UAEXXZ
 ?Tick@UFliTexture@@UAEXM@Z
 ?Tick@UGameEngine@@UAEXM@Z
 ?Tick@ULevel@@UAEXW4ELevelTick@@M@Z
 ?Tick@UNetConnection@@UAEXXZ
 ?Tick@UScriptedTexture@@UAEXM@Z
 ?Tick@UTexture@@UAEXM@Z
 ?TickDemoPlayback@ULevel@@UAEHM@Z
 ?TickDemoRecord@ULevel@@UAEHM@Z
 ?TickDispatch@UDemoRecDriver@@UAEXM@Z
 ?TickDispatch@UNetDriver@@UAEXM@Z
 ?TickFlush@UNetDriver@@UAEXXZ
 ?TickNetClient@ULevel@@UAEXM@Z
 ?TickNetServer@ULevel@@UAEXM@Z
 ?ToLocal@AActor@@UBE?AVFCoords@@XZ
 ?ToLocal@ABrush@@UBE?AVFCoords@@XZ
 ?ToWorld@AActor@@UBE?AVFCoords@@XZ
 ?ToWorld@ABrush@@UBE?AVFCoords@@XZ
 ?TraceVisible@ULevel@@QAEXAAVFVector@@AAUFCheckResult@@PAVAActor@@ABV2@KH@Z
 ?TraceVisibleObjects@ULevel@@QAEXPAVUClass@@AAVFVector@@AAUFCheckResult@@PAVAActor@@ABV3@KH@Z
 ?Transform@FPoly@@QAEXABVFModelCoords@@ABVFVector@@1M@Z
 ?Transform@UModel@@QAEXPAVABrush@@@Z
 ?TraverseFrom@APawn@@QAEHPAVAActor@@H@Z
 ?TrueColor@FColor@@QBEKXZ
 ?TwoWallAdjust@AActor@@QAEXAAVFVector@@000M@Z
 ?Unload@FTextureInfo@@QAEXXZ
 ?Unlock@UTexture@@UAEXAAUFTextureInfo@@@Z
 ?Unlock@UViewport@@UAEXH@Z
 ?Update@ACTVE_ChainSpark@@QAEXXZ
 ?Update@UCanvas@@UAEXPAUFSceneNode@@@Z
 ?Update@UTexture@@UAEXN@Z
 ?UpdateConnectingMessage@UGameEngine@@UAEXXZ
 ?UpdateTime@ULevel@@UAEXPAVALevelInfo@@@Z
 ?VerifyMM@ACTVE_Weather@@QAEXPAVUCTVE_MultiMesh@@@Z
 ?VerifyMMBlock@ACTVE_Weather@@QAE_NPAVUCTVE_MultiMesh@@H@Z
 ?VerifyMMRadius@ACTVE_Weather@@QAE_NPAVUCTVE_MultiMesh@@H@Z
 ?WelcomePlayer@ULevel@@UAEXPAVUNetConnection@@PAD@Z
 ?WorldLightRadius@AActor@@UBEMXZ
 ?WorldSoundRadius@AActor@@QBEMXZ
 ?WorldVolumetricRadius@AActor@@QBEMXZ
 ?WrappedPrint@UCanvas@@AAAXW4ERenderStyle@@AAH1PAVUFont@@HPBD@Z
 ?WrappedPrintf@UCanvas@@UAAXPAVUFont@@HPBDZZ
 ?WrappedScaledPrint@UCanvas@@AAAXW4ERenderStyle@@AAH1PAVUFont@@HPBDM@Z
 ?WrappedStrLenf@UCanvas@@UAAXPAVUFont@@AAH1PBDZZ
 ?_Init@UConsole@@UAEXPAVUViewport@@@Z
 ?_Screen@UViewport@@QAEPAEHH@Z
 ?__Client@UBitmap@@2PAVUClient@@A
 ?__FUNC_NAME__@?2??BuildCoords@ABrush@@QAEMPAVFModelCoords@@0@Z@4QBDB
 ?__FUNC_NAME__@?2??CopyPosRotScaleFrom@ABrush@@UAEXPAV2@@Z@4QBDB
 ?__FUNC_NAME__@?2??Destroy@UC3DMESHSTATE@@UAEXXZ@4QBDB
 ?__FUNC_NAME__@?2??GetActorIndex@ULevel@@QAEHPAVAActor@@@Z@4QBDB
 ?__FUNC_NAME__@?2??PostLoad@ULevelSummary@@UAEXXZ@4QBDB
 ?__FUNC_NAME__@?2??Serialize@UBspNodes@@UAEXAAVFArchive@@@Z@4QBDB
 ?__FUNC_NAME__@?2??Serialize@UBspSurfs@@UAEXAAVFArchive@@@Z@4QBDB
 ?__FUNC_NAME__@?2??Serialize@UPolys@@UAEXAAVFArchive@@@Z@4QBDB
 ?__FUNC_NAME__@?2??Serialize@UVectors@@UAEXAAVFArchive@@@Z@4QBDB
 ?__FUNC_NAME__@?2??Serialize@UVerts@@UAEXAAVFArchive@@@Z@4QBDB
 ?__FUNC_NAME__@?2??TwoWallAdjust@AActor@@QAEXAAVFVector@@000M@Z@4QBDB
 ?actorReachable@APawn@@QAEHPAVAActor@@H@Z
 ?addReachSpecs@FPathBuilder@@AAEXPAVAActor@@@Z
 ?addVisNoReach@FPathBuilder@@AAEXPAVAActor@@@Z
 ?breadthPathFrom@APawn@@QAEHPAVAActor@@AAPAV2@HH@Z
 ?breadthPathToInventory@APawn@@QAEMPAVAActor@@AAPAV2@HMH@Z
 ?calcMoveFlags@APawn@@QAEHXZ
 ?calcVelocity@ACTVE_PlayerPawn@@AAEXVFVector@@MMMHHH@Z
 ?calcVelocity@APawn@@QAEXVFVector@@MMMHHH@Z
 ?checkFloor@APawn@@AAEHVFVector@@AAUFCheckResult@@@Z
 ?clearPath@APawn@@QAEXPAVANavigationPoint@@@Z
 ?clearPaths@APawn@@QAEXXZ
 ?defineFor@FReachSpec@@QAEHPAVAActor@@0PAVAPawn@@@Z
 ?definePaths@FPathBuilder@@QAEXPAVULevel@@@Z
 ?edcamMode@UEngine@@UAEHPAVUViewport@@@Z
 ?eventAccept@ANavigationPoint@@QAEKPAVAActor@@0@Z
 ?eventAcceptInventory@AGameInfo@@QAEXPAVAPawn@@@Z
 ?eventActorEntered@AZoneInfo@@QAEXPAVAActor@@@Z
 ?eventActorLeaving@AZoneInfo@@QAEXPAVAActor@@@Z
 ?eventAlarmTriggered@ACTVE_DialogInput@@QAEKXZ
 ?eventAlterDestination@APawn@@QAEXXZ
 ?eventAnimEnd@AActor@@QAEXXZ
 ?eventAttach@AActor@@QAEXPAV1@@Z
 ?eventBaseChange@AActor@@QAEXXZ
 ?eventBeamDown@ACTVE_Dialog@@QAEXABVFString@@@Z
 ?eventBeginEvent@AActor@@QAEXXZ
 ?eventBeginPlay@AActor@@QAEXXZ
 ?eventBotDesireability@AInventory@@QAEMPAVAPawn@@@Z
 ?eventBroadcastLocalizedMessage@AActor@@QAEXPAVUClass@@HPAVAPlayerReplicationInfo@@1PAVUObject@@@Z
 ?eventBroadcastMessage@AActor@@QAEXABVFString@@KVFName@@@Z
 ?eventBump2@AActor@@QAEXPAV1@VFVector@@1@Z
 ?eventBump@AActor@@QAEXPAV1@@Z
 ?eventC3DAnimEnd@AActor@@QAEXVFName@@@Z
 ?eventC3DPreRender@AActor@@QAEXXZ
 ?eventC3DSpeechEvent@AActor@@QAEXHM@Z
 ?eventCanBeamDownItems@ACTVE_DialogInput@@QAEKXZ
 ?eventCanIEnterMovementConstraint@APawn@@QAEKXZ
 ?eventCanIExitMovementConstraint@APawn@@QAEKXZ
 ?eventCanIShutYouDown@AActor@@QAEKXZ
 ?eventChangePhysics@AActor@@QAEKE@Z
 ?eventChestZoneChange@ACTVE_PlayerPawn@@QAEXPAVAZoneInfo@@@Z
 ?eventClientHearSound@APawn@@QAEXPAVAActor@@HPAVUSound@@VFVector@@2@Z
 ?eventClientMessage@APawn@@QAEXABVFString@@VFName@@K@Z
 ?eventClientTravel@APlayerPawn@@QAEXABVFString@@EK@Z
 ?eventCloseToBajoranSurvivor@ACTVE_DialogInput@@QAEKXZ
 ?eventCommunicationBlocked@ACTVE_DialogInput@@QAEKXZ
 ?eventDefineImage@ACTVE_Document@@QAEXABVFString@@EE@Z
 ?eventDemoPlaySound@AActor@@QAEXPAVUSound@@EMKMM@Z
 ?eventDestroyed@AActor@@QAEXXZ
 ?eventDetach@AActor@@QAEXPAV1@@Z
 ?eventDetailChange@AGameInfo@@QAEXXZ
 ?eventDialogCompleted@ACTVE_Dialog@@QAEXXZ
 ?eventDisplayText@ACTVE_Dialog@@QAEXABVFString@@@Z
 ?eventDoEvent@ACTVE_DialogInput@@QAEXVFName@@@Z
 ?eventDoSpecialEvent@ACTVE_DialogInput@@QAEXABVFString@@@Z
 ?eventDrawLoadGameFile@ACTVE_Hud@@QAEXHABVFString@@0@Z
 ?eventEncroachedBy@AActor@@QAEXPAV1@@Z
 ?eventEncroachingOn@AActor@@QAEKPAV1@@Z
 ?eventEndEvent@AActor@@QAEXXZ
 ?eventEndedRotation@AActor@@QAEXXZ
 ?eventEnemyIsA@ACTVE_DialogInput@@QAEKPAVAActor@@VFName@@@Z
 ?eventEnemyIsIntelligent@ACTVE_DialogInput@@QAEKPAVAActor@@@Z
 ?eventEnemyNotVisible@APawn@@QAEXXZ
 ?eventExpired@AActor@@QAEXXZ
 ?eventFalling@AActor@@QAEXXZ
 ?eventFellOutOfWorld@AActor@@QAEXXZ
 ?eventFootZoneChange@APawn@@QAEXPAVAZoneInfo@@@Z
 ?eventForceGenerate@AWarpZoneInfo@@QAEXXZ
 ?eventFoundDocument@ACTVE_Document@@QAEXABVFString@@@Z
 ?eventFriendClose@ACTVE_DialogInput@@QAEKPAVAActor@@M@Z
 ?eventGainedChild@AActor@@QAEXPAV1@@Z
 ?eventGameEnding@AGameInfo@@QAEXXZ
 ?eventGenerate@AWarpZoneInfo@@QAEXXZ
 ?eventGetBeaconText@AGameInfo@@QAE?AVFString@@XZ
 ?eventGetSpeakerActor@AActor@@QAEPAV1@VFName@@0K@Z
 ?eventHasAmmo@ACTVE_Dialog@@QAEKMVFName@@@Z
 ?eventHasItem@ACTVE_Dialog@@QAEKVFName@@@Z
 ?eventHasItem@ACTVE_DialogInput@@QAEKVFName@@@Z
 ?eventHeadZoneChange@APawn@@QAEXPAVAZoneInfo@@@Z
 ?eventHearNoise@APawn@@QAEXMPAVAActor@@@Z
 ?eventHitWall@AActor@@QAEXVFVector@@PAV1@@Z
 ?eventHudEvent@AHUD@@QAEKH@Z
 ?eventHudLoadFile@ACTVE_Hud@@QAEXABVFString@@@Z
 ?eventHudMessage@AActor@@QAEXABVFString@@@Z
 ?eventHudText@AHUD@@QAEXABVFString@@MVFName@@PAVAActor@@@Z
 ?eventInBeamDownZone@ACTVE_DialogInput@@QAEKXZ
 ?eventInitGame@AGameInfo@@QAEXABVFString@@AAV2@@Z
 ?eventInterpolateEnd@AActor@@QAEXPAV1@@Z
 ?eventIsActorAnEnemy@APawn@@QAEKPAVAActor@@@Z
 ?eventIsCommunicationActive@AHUD@@QAEKXZ
 ?eventIsLetterBoxOn@AHUD@@QAEKXZ
 ?eventIsPlayer@ACTVE_DialogInput@@QAEKABVFString@@@Z
 ?eventItemReady@ACTVE_DialogInput@@QAEKVFName@@@Z
 ?eventKeyEvent@UConsole@@QAEKEEM@Z
 ?eventKeyType@UConsole@@QAEKE@Z
 ?eventKillCredit@AActor@@QAEXPAV1@@Z
 ?eventKillDialogDisplay@AHUD@@QAEXXZ
 ?eventKilledBy@AActor@@QAEXPAV1@@Z
 ?eventLanded@AActor@@QAEXVFVector@@@Z
 ?eventLoadText@ACTVE_Document@@QAEXABVFString@@@Z
 ?eventLogGameSpecial@AStatLog@@QAEXABVFString@@0@Z
 ?eventLogin@AGameInfo@@QAEPAVAPlayerPawn@@ABVFString@@0AAV3@PAVUClass@@@Z
 ?eventLongFall@APawn@@QAEXXZ
 ?eventLostChild@AActor@@QAEXPAV1@@Z
 ?eventLowAmmo@ACTVE_DialogInput@@QAEKVFName@@M@Z
 ?eventLowHealth@ACTVE_DialogInput@@QAEKH@Z
 ?eventLowShield@ACTVE_DialogInput@@QAEKH@Z
 ?eventMayFall@APawn@@QAEXXZ
 ?eventMessage@UConsole@@QAEXPAVAPlayerReplicationInfo@@ABVFString@@PAVAZoneInfo@@VFName@@@Z
 ?eventNotifyLevelChange@UConsole@@QAEXXZ
 ?eventObjectiveCompleted@ACTVE_DialogInput@@QAEKH@Z
 ?eventOpsLevel@ACTVE_DialogInput@@QAEKABVFString@@H@Z
 ?eventPainTimer@APawn@@QAEXXZ
 ?eventPause@ACTVE_Dialog@@QAEXM@Z
 ?eventPawnPlayerEnemy@ACTVE_DialogInput@@QAEKPAVACTVE_Pawn@@@Z
 ?eventPawnSurrenderOrPray@ACTVE_DialogInput@@QAEKPAVACTVE_Pawn@@@Z
 ?eventPlayDialog@AActor@@QAEHABVFString@@VFName@@110@Z
 ?eventPlayDialogAnim@AActor@@QAEXVFName@@MM@Z
 ?eventPlayDummySound@AActor@@QAEXMM@Z
 ?eventPlayFoleySound@AActor@@QAEXEMMM@Z
 ?eventPlaySound@AActor@@QAEXPAVUSound@@EMKMMK@Z
 ?eventPlaySpeech@AActor@@QAEXPAVUSound@@MKK@Z
 ?eventPlayerCalcView@APlayerPawn@@QAEXAAPAVAActor@@AAVFVector@@AAVFRotator@@@Z
 ?eventPlayerFaceEnemy@ACTVE_DialogInput@@QAEKPAVAActor@@@Z
 ?eventPlayerHoldingWeapon@ACTVE_DialogInput@@QAEKXZ
 ?eventPlayerInPlace@ACTVE_DialogInput@@QAEKABVFString@@@Z
 ?eventPlayerInput@APlayerPawn@@QAEXM@Z
 ?eventPlayerTick@APlayerPawn@@QAEXM@Z
 ?eventPlayerTimeout@APawn@@QAEXXZ
 ?eventPoisoned@ACTVE_DialogInput@@QAEKXZ
 ?eventPossess@APlayerPawn@@QAEXXZ
 ?eventPostBeginPlay@AActor@@QAEXXZ
 ?eventPostLogin@AGameInfo@@QAEXPAVAPlayerPawn@@@Z
 ?eventPostRender@AHUD@@QAEXPAVUCanvas@@@Z
 ?eventPostRender@APlayerPawn@@QAEXPAVUCanvas@@@Z
 ?eventPostRender@UConsole@@QAEXPAVUCanvas@@@Z
 ?eventPostTeleport@AActor@@QAEXPAVATeleporter@@@Z
 ?eventPostTouch@AActor@@QAEXPAV1@@Z
 ?eventPreBeginPlay@AActor@@QAEXXZ
 ?eventPreClientTravel@APlayerPawn@@QAEXXZ
 ?eventPreLogin@AGameInfo@@QAEXABVFString@@0AAV2@@Z
 ?eventPreRender@AHUD@@QAEXPAVUCanvas@@@Z
 ?eventPreRender@APlayerPawn@@QAEXPAVUCanvas@@@Z
 ?eventPreRender@UConsole@@QAEXPAVUCanvas@@@Z
 ?eventPreTeleport@AActor@@QAEKPAVATeleporter@@@Z
 ?eventProxyAnimEnd@AActor@@QAEXPAV1@@Z
 ?eventProxyC3DAnimEnd@AActor@@QAEXPAV1@VFName@@@Z
 ?eventProxyTick@AActor@@QAEXPAV1@M@Z
 ?eventReceiveLocalizedMessage@APawn@@QAEXPAVUClass@@HPAVAPlayerReplicationInfo@@1PAVUObject@@@Z
 ?eventRenderOverlays@AActor@@QAEXPAVUCanvas@@@Z
 ?eventRenderTexture@AActor@@QAEXPAVUScriptedTexture@@@Z
 ?eventRescuedMoreThan@ACTVE_DialogInput@@QAEKH@Z
 ?eventReset@UCanvas@@QAEXXZ
 ?eventSeePlayer@APawn@@QAEXPAVAActor@@@Z
 ?eventSendEvent@ACTVE_Dialog@@QAEXVFName@@@Z
 ?eventServerTravel@ALevelInfo@@QAEXABVFString@@K@Z
 ?eventSetColor@ACTVE_Document@@QAEXABVFString@@@Z
 ?eventSetFontJust@ACTVE_Document@@QAEXH@Z
 ?eventSetFontSize@ACTVE_Document@@QAEXH@Z
 ?eventSetInitialState@AActor@@QAEXXZ
 ?eventSetPauseDelay@ACTVE_Dialog@@QAEXM@Z
 ?eventSetSpeaker@ACTVE_Dialog@@QAEXVFName@@@Z
 ?eventSetTitle@ACTVE_Document@@QAEXABVFString@@@Z
 ?eventShowUpgradeMenu@APlayerPawn@@QAEXXZ
 ?eventSpawned@AActor@@QAEXXZ
 ?eventSpecialCondition@ACTVE_DialogInput@@QAEKABVFString@@@Z
 ?eventSpecialCost@ANavigationPoint@@QAEHPAVAPawn@@@Z
 ?eventSpecialHandling@AActor@@QAEPAV1@PAVAPawn@@@Z
 ?eventSpeechTimer@APawn@@QAEXXZ
 ?eventSwitchSection@ACTVE_Dialog@@QAEXABVFString@@@Z
 ?eventTagExists@ACTVE_DialogInput@@QAEKVFName@@@Z
 ?eventTakeDamage@AActor@@QAEXHPAV1@VFVector@@1VFName@@@Z
 ?eventTalkSound@ACTVE_Dialog@@QAEXABVFString@@K@Z
 ?eventTeamMessage@APawn@@QAEXPAVAPlayerReplicationInfo@@ABVFString@@VFName@@K@Z
 ?eventTick@AActor@@QAEXM@Z
 ?eventTick@UConsole@@QAEXM@Z
 ?eventTimePassed@ACTVE_Dialog@@QAEKM@Z
 ?eventTimePassed@ACTVE_DialogInput@@QAEKHH@Z
 ?eventTimer@AActor@@QAEXXZ
 ?eventTouch@AActor@@QAEXPAV1@@Z
 ?eventTouchingClass@ACTVE_Dialog@@QAEKVFName@@@Z
 ?eventTravelPostAccept@AActor@@QAEXXZ
 ?eventTravelPreAccept@AActor@@QAEXXZ
 ?eventTrigger@AActor@@QAEXPAV1@PAVAPawn@@@Z
 ?eventTurretTriggered@ACTVE_DialogInput@@QAEKXZ
 ?eventUnPossess@APlayerPawn@@QAEXXZ
 ?eventUnTouch@AActor@@QAEXPAV1@@Z
 ?eventUnTrigger@AActor@@QAEXPAV1@PAVAPawn@@@Z
 ?eventUnderWaterSounds@AActor@@QAEKXZ
 ?eventUpdate@ADecal@@QAEXPAVAActor@@@Z
 ?eventUpdateEyeHeight@APawn@@QAEXM@Z
 ?eventUpdateHeadAnimation@APawn@@QAEXXZ
 ?eventUsingItem@ACTVE_DialogInput@@QAEKVFName@@@Z
 ?eventVideoChange@UConsole@@QAEXXZ
 ?eventWalkTexture@APawn@@QAEXPAVUTexture@@VFVector@@1@Z
 ?eventZoneChange@AActor@@QAEXPAVAZoneInfo@@@Z
 ?execAddPawn@APawn@@QAEXAAUFFrame@@QAX@Z
 ?execAllActors@AActor@@QAEXAAUFFrame@@QAX@Z
 ?execAllPathNodes@AActor@@QAEXAAUFFrame@@QAX@Z
 ?execAllPawns@AActor@@QAEXAAUFFrame@@QAX@Z
 ?execAttachDecal@ADecal@@QAEXAAUFFrame@@QAX@Z
 ?execAutonomousPhysics@AActor@@QAEXAAUFFrame@@QAX@Z
 ?execBasedActors@AActor@@QAEXAAUFFrame@@QAX@Z
 ?execBatchLocal@AStatLog@@QAEXAAUFFrame@@QAX@Z
 ?execBrowseRelativeLocalURL@AStatLog@@QAEXAAUFFrame@@QAX@Z
 ?execC3DActorInit@AActor@@QAEXAAUFFrame@@QAX@Z
 ?execC3DApplyIKOnBasePose@AActor@@QAEXAAUFFrame@@QAX@Z
 ?execC3DApplyRotation@AActor@@QAEXAAUFFrame@@QAX@Z
 ?execC3DApplyWorldRotation@AActor@@QAEXAAUFFrame@@QAX@Z
 ?execC3DAttach@AActor@@QAEXAAUFFrame@@QAX@Z
 ?execC3DBonedTrace@AActor@@QAEXAAUFFrame@@QAX@Z
 ?execC3DClearIkTarget@AActor@@QAEXAAUFFrame@@QAX@Z
 ?execC3DClearSkinAnim@AActor@@QAEXAAUFFrame@@QAX@Z
 ?execC3DCopySkinAnimState@AActor@@QAEXAAUFFrame@@QAX@Z
 ?execC3DDetach@AActor@@QAEXAAUFFrame@@QAX@Z
 ?execC3DDoesBoneExist@AActor@@QAEXAAUFFrame@@QAX@Z
 ?execC3DDrawHelpObjects@AActor@@QAEXAAUFFrame@@QAX@Z
 ?execC3DFinishAnim@AActor@@QAEXAAUFFrame@@QAX@Z
 ?execC3DGetAnimName@AActor@@QAEXAAUFFrame@@QAX@Z
 ?execC3DGetAnimSource@AActor@@QAEXAAUFFrame@@QAX@Z
 ?execC3DGetAnimSourceFromName@AActor@@QAEXAAUFFrame@@QAX@Z
 ?execC3DGetAttachPtCoords@AActor@@QAEXAAUFFrame@@QAX@Z
 ?execC3DGetAttachPtCoordsPrecomputed@AActor@@QAEXAAUFFrame@@QAX@Z
 ?execC3DGetAttachPtOffset@AActor@@QAEXAAUFFrame@@QAX@Z
 ?execC3DGetBoundingBox@AActor@@QAEXAAUFFrame@@QAX@Z
 ?execC3DGetJointLocalPos@AActor@@QAEXAAUFFrame@@QAX@Z
 ?execC3DGetJointLocalPosRel@AActor@@QAEXAAUFFrame@@QAX@Z
 ?execC3DGetJointWorldPos@AActor@@QAEXAAUFFrame@@QAX@Z
 ?execC3DGetJointWorldPosRel@AActor@@QAEXAAUFFrame@@QAX@Z
 ?execC3DGetNextClassProps@AActor@@QAEXAAUFFrame@@QAX@Z
 ?execC3DGetNumAnims@AActor@@QAEXAAUFFrame@@QAX@Z
 ?execC3DGetNumAttachPts@AActor@@QAEXAAUFFrame@@QAX@Z
 ?execC3DInitAltMeshes@AActor@@QAEXAAUFFrame@@QAX@Z
 ?execC3DIsAnimating@AActor@@QAEXAAUFFrame@@QAX@Z
 ?execC3DIsBoned@AActor@@QAEXAAUFFrame@@QAX@Z
 ?execC3DLoopAnim@AActor@@QAEXAAUFFrame@@QAX@Z
 ?execC3DPlayAnim@AActor@@QAEXAAUFFrame@@QAX@Z
 ?execC3DPlaySkinAnim@AActor@@QAEXAAUFFrame@@QAX@Z
 ?execC3DRemoveRotation@AActor@@QAEXAAUFFrame@@QAX@Z
 ?execC3DSetFullBodyAnimType@AActor@@QAEXAAUFFrame@@QAX@Z
 ?execC3DSetIkTargetOrientation@AActor@@QAEXAAUFFrame@@QAX@Z
 ?execC3DSetIkTargetOrientationAbs@AActor@@QAEXAAUFFrame@@QAX@Z
 ?execC3DSetIkTargetPosition@AActor@@QAEXAAUFFrame@@QAX@Z
 ?execC3DSetIkTargetPositionAbs@AActor@@QAEXAAUFFrame@@QAX@Z
 ?execC3DSetSkinAnim@AActor@@QAEXAAUFFrame@@QAX@Z
 ?execC3DThumbDebug@AActor@@QAEXAAUFFrame@@QAX@Z
 ?execC3DTweenAnim@AActor@@QAEXAAUFFrame@@QAX@Z
 ?execC3DTweenOutAnim@AActor@@QAEXAAUFFrame@@QAX@Z
 ?execC3DTweenSkinAnim@AActor@@QAEXAAUFFrame@@QAX@Z
 ?execC3DTweenSkinAnimDelay@AActor@@QAEXAAUFFrame@@QAX@Z
 ?execC3DUpdateAnimationState@AActor@@QAEXAAUFFrame@@QAX@Z
 ?execC3DUsesC3DMesh@AActor@@QAEXAAUFFrame@@QAX@Z
 ?execCanSee@APawn@@QAEXAAUFFrame@@QAX@Z
 ?execChainSparkTick@ACTVE_ChainSpark@@QAEXAAUFFrame@@QAX@Z
 ?execCheckFOV@AActor@@QAEXAAUFFrame@@QAX@Z
 ?execChildActors@AActor@@QAEXAAUFFrame@@QAX@Z
 ?execClearLatentMovement@APawn@@QAEXAAUFFrame@@QAX@Z
 ?execClearPaths@APawn@@QAEXAAUFFrame@@QAX@Z
 ?execClientHearSound@APawn@@QAEXAAUFFrame@@QAX@Z
 ?execClientTravel@APlayerPawn@@QAEXAAUFFrame@@QAX@Z
 ?execCloseFile@ATimeDemo@@QAEXAAUFFrame@@QAX@Z
 ?execCloseLog@AStatLogFile@@QAEXAAUFFrame@@QAX@Z
 ?execConsoleCommand@AActor@@QAEXAAUFFrame@@QAX@Z
 ?execConsoleCommand@APlayerPawn@@QAEXAAUFFrame@@QAX@Z
 ?execConsoleCommand@UConsole@@QAEXAAUFFrame@@QAX@Z
 ?execCopyToClipboard@APlayerPawn@@QAEXAAUFFrame@@QAX@Z
 ?execDeleteByFileID@ACTVE_Hud@@QAEXAAUFFrame@@QAX@Z
 ?execDemoPlaySound@AActor@@QAEXAAUFFrame@@QAX@Z
 ?execDestroy@AActor@@QAEXAAUFFrame@@QAX@Z
 ?execDetachDecal@ADecal@@QAEXAAUFFrame@@QAX@Z
 ?execDialogTick@ACTVE_DialogInput@@QAEXAAUFFrame@@QAX@Z
 ?execDrawActor@UCanvas@@QAEXAAUFFrame@@QAX@Z
 ?execDrawClippedActor@UCanvas@@QAEXAAUFFrame@@QAX@Z
 ?execDrawColoredText@UScriptedTexture@@QAEXAAUFFrame@@QAX@Z
 ?execDrawLoadGameList@ACTVE_Hud@@QAEXAAUFFrame@@QAX@Z
 ?execDrawPortal@UCanvas@@QAEXAAUFFrame@@QAX@Z
 ?execDrawScaledText@UCanvas@@QAEXAAUFFrame@@QAX@Z
 ?execDrawText@UCanvas@@QAEXAAUFFrame@@QAX@Z
 ?execDrawText@UScriptedTexture@@QAEXAAUFFrame@@QAX@Z
 ?execDrawTextClipped@UCanvas@@QAEXAAUFFrame@@QAX@Z
 ?execDrawTile@UCanvas@@QAEXAAUFFrame@@QAX@Z
 ?execDrawTile@UScriptedTexture@@QAEXAAUFFrame@@QAX@Z
 ?execDrawTileClipped@UCanvas@@QAEXAAUFFrame@@QAX@Z
 ?execEAdjustJump@APawn@@QAEXAAUFFrame@@QAX@Z
 ?execEnemyActors@AActor@@QAEXAAUFFrame@@QAX@Z
 ?execError@AActor@@QAEXAAUFFrame@@QAX@Z
 ?execExecuteLocalLogBatcher@AStatLog@@QAEXAAUFFrame@@QAX@Z
 ?execExecuteSilentLogBatcher@AStatLog@@QAEXAAUFFrame@@QAX@Z
 ?execExecuteWorldLogBatcher@AStatLog@@QAEXAAUFFrame@@QAX@Z
 ?execFastForward@AActor@@QAEXAAUFFrame@@QAX@Z
 ?execFileFlush@AStatLogFile@@QAEXAAUFFrame@@QAX@Z
 ?execFileLog@AStatLogFile@@QAEXAAUFFrame@@QAX@Z
 ?execFindBestDialogLine@AActor@@QAEXAAUFFrame@@QAX@Z
 ?execFindBestInventoryPath@APawn@@QAEXAAUFFrame@@QAX@Z
 ?execFindDocument@ACTVE_Document@@QAEXAAUFFrame@@QAX@Z
 ?execFindPathTo@APawn@@QAEXAAUFFrame@@QAX@Z
 ?execFindPathToward@APawn@@QAEXAAUFFrame@@QAX@Z
 ?execFindRandomDest@APawn@@QAEXAAUFFrame@@QAX@Z
 ?execFindStairRotation@APawn@@QAEXAAUFFrame@@QAX@Z
 ?execFinishAnim@AActor@@QAEXAAUFFrame@@QAX@Z
 ?execFinishInterpolation@AActor@@QAEXAAUFFrame@@QAX@Z
 ?execForceUpdate@ACTVE_ChainSpark@@QAEXAAUFFrame@@QAX@Z
 ?execGetAddressURL@ALevelInfo@@QAEXAAUFFrame@@QAX@Z
 ?execGetAnimDuration@AActor@@QAEXAAUFFrame@@QAX@Z
 ?execGetAnimGroup@AActor@@QAEXAAUFFrame@@QAX@Z
 ?execGetChecksum@AStatLogFile@@QAEXAAUFFrame@@QAX@Z
 ?execGetDefaultURL@APlayerPawn@@QAEXAAUFFrame@@QAX@Z
 ?execGetDialogueCameraData@AActor@@QAEXAAUFFrame@@QAX@Z
 ?execGetEntryLevel@APlayerPawn@@QAEXAAUFFrame@@QAX@Z
 ?execGetGMTRef@AStatLog@@QAEXAAUFFrame@@QAX@Z
 ?execGetLocalURL@ALevelInfo@@QAEXAAUFFrame@@QAX@Z
 ?execGetMapFileName@AStatLog@@QAEXAAUFFrame@@QAX@Z
 ?execGetMapName@AActor@@QAEXAAUFFrame@@QAX@Z
 ?execGetMapTitle@AActor@@QAEXAAUFFrame@@QAX@Z
 ?execGetNetworkNumber@AGameInfo@@QAEXAAUFFrame@@QAX@Z
 ?execGetNextInt@AActor@@QAEXAAUFFrame@@QAX@Z
 ?execGetNextIntDesc@AActor@@QAEXAAUFFrame@@QAX@Z
 ?execGetNextSkin@AActor@@QAEXAAUFFrame@@QAX@Z
 ?execGetPlayerNetworkAddress@APlayerPawn@@QAEXAAUFFrame@@QAX@Z
 ?execGetRegion@AActor@@QAEXAAUFFrame@@QAX@Z
 ?execGetRendererFlags@AActor@@QAEXAAUFFrame@@QAX@Z
 ?execGetScreenCoords@UCanvas@@QAEXAAUFFrame@@QAX@Z
 ?execGetSoundDuration@AActor@@QAEXAAUFFrame@@QAX@Z
 ?execGetSplineData@ACTVE_Spline@@QAEXAAUFFrame@@QAX@Z
 ?execGetSurfaceTexture@AActor@@QAEXAAUFFrame@@QAX@Z
 ?execGetURLMap@AActor@@QAEXAAUFFrame@@QAX@Z
 ?execGetWaterLine@AActor@@QAEXAAUFFrame@@QAX@Z
 ?execGhostActors@AActor@@QAEXAAUFFrame@@QAX@Z
 ?execHasAnim@AActor@@QAEXAAUFFrame@@QAX@Z
 ?execInitialCheck@AStatLog@@QAEXAAUFFrame@@QAX@Z
 ?execInitialSetUp@ACTVE_Weather@@QAEXAAUFFrame@@QAX@Z
 ?execInterpolateRotation@AActor@@QAEXAAUFFrame@@QAX@Z
 ?execIsAnimating@AActor@@QAEXAAUFFrame@@QAX@Z
 ?execIsDialogLineSpecial@AActor@@QAEXAAUFFrame@@QAX@Z
 ?execIsDialogThreadPlaying@AActor@@QAEXAAUFFrame@@QAX@Z
 ?execIsKeyDown@AActor@@QAEXAAUFFrame@@QAX@Z
 ?execLineOfSightTo@APawn@@QAEXAAUFFrame@@QAX@Z
 ?execListActors@AActor@@QAEXAAUFFrame@@QAX@Z
 ?execLoadByFileID@ACTVE_Hud@@QAEXAAUFFrame@@QAX@Z
 ?execLoadDocument@ACTVE_Document@@QAEXAAUFFrame@@QAX@Z
 ?execLocalizeDocument@ACTVE_Document@@QAEXAAUFFrame@@QAX@Z
 ?execLogMutator@AStatLog@@QAEXAAUFFrame@@QAX@Z
 ?execLoopAnim@AActor@@QAEXAAUFFrame@@QAX@Z
 ?execMakeGhost@AActor@@QAEXAAUFFrame@@QAX@Z
 ?execMakeNoise@AActor@@QAEXAAUFFrame@@QAX@Z
 ?execMove@AActor@@QAEXAAUFFrame@@QAX@Z
 ?execMoveSmooth@AActor@@QAEXAAUFFrame@@QAX@Z
 ?execMoveTo2@APawn@@QAEXAAUFFrame@@QAX@Z
 ?execMoveTo@APawn@@QAEXAAUFFrame@@QAX@Z
 ?execMoveToward@APawn@@QAEXAAUFFrame@@QAX@Z
 ?execOpenFile@ATimeDemo@@QAEXAAUFFrame@@QAX@Z
 ?execOpenLog@AStatLogFile@@QAEXAAUFFrame@@QAX@Z
 ?execParseKillMessage@AGameInfo@@QAEXAAUFFrame@@QAX@Z
 ?execPasteFromClipboard@APlayerPawn@@QAEXAAUFFrame@@QAX@Z
 ?execPerformPhysics@AActor@@QAEXAAUFFrame@@QAX@Z
 ?execPickAnyTarget@APawn@@QAEXAAUFFrame@@QAX@Z
 ?execPickTarget@APawn@@QAEXAAUFFrame@@QAX@Z
 ?execPickWallAdjust@APawn@@QAEXAAUFFrame@@QAX@Z
 ?execPlayAnim@AActor@@QAEXAAUFFrame@@QAX@Z
 ?execPlayDialogLine@ACTVE_Dialog@@QAEXAAUFFrame@@QAX@Z
 ?execPlayDummySound@AActor@@QAEXAAUFFrame@@QAX@Z
 ?execPlayOwnedSound@AActor@@QAEXAAUFFrame@@QAX@Z
 ?execPlaySound@AActor@@QAEXAAUFFrame@@QAX@Z
 ?execPlayerCanSeeMe@AActor@@QAEXAAUFFrame@@QAX@Z
 ?execPointCheck@AActor@@QAEXAAUFFrame@@QAX@Z
 ?execPollC3DFinishAnim@AActor@@QAEXAAUFFrame@@QAX@Z
 ?execPollFinishAnim@AActor@@QAEXAAUFFrame@@QAX@Z
 ?execPollFinishInterpolation@AActor@@QAEXAAUFFrame@@QAX@Z
 ?execPollMoveTo2@ACTVE_Pawn@@QAEXAAUFFrame@@QAX@Z
 ?execPollMoveTo@APawn@@QAEXAAUFFrame@@QAX@Z
 ?execPollMoveToward@APawn@@QAEXAAUFFrame@@QAX@Z
 ?execPollSleep@AActor@@QAEXAAUFFrame@@QAX@Z
 ?execPollStrafeFacing@APawn@@QAEXAAUFFrame@@QAX@Z
 ?execPollStrafeTo@APawn@@QAEXAAUFFrame@@QAX@Z
 ?execPollTurnTo@APawn@@QAEXAAUFFrame@@QAX@Z
 ?execPollTurnToward@APawn@@QAEXAAUFFrame@@QAX@Z
 ?execPollWaitForLanding@APawn@@QAEXAAUFFrame@@QAX@Z
 ?execPower@AActor@@QAEXAAUFFrame@@QAX@Z
 ?execRadiusActors@AActor@@QAEXAAUFFrame@@QAX@Z
 ?execRadiusPathNodes@AActor@@QAEXAAUFFrame@@QAX@Z
 ?execRadiusPawns@AActor@@QAEXAAUFFrame@@QAX@Z
 ?execRadiusVisiblePathNodes@AActor@@QAEXAAUFFrame@@QAX@Z
 ?execRemovePawn@APawn@@QAEXAAUFFrame@@QAX@Z
 ?execReplaceTexture@UScriptedTexture@@QAEXAAUFFrame@@QAX@Z
 ?execResetKeyboard@APlayerPawn@@QAEXAAUFFrame@@QAX@Z
 ?execResetRenderFrame@UCanvas@@QAEXAAUFFrame@@QAX@Z
 ?execResizeActor@AActor@@QAEXAAUFFrame@@QAX@Z
 ?execScriptTick@AActor@@QAEXAAUFFrame@@QAX@Z
 ?execSetBase@AActor@@QAEXAAUFFrame@@QAX@Z
 ?execSetCollision@AActor@@QAEXAAUFFrame@@QAX@Z
 ?execSetCollisionSize@AActor@@QAEXAAUFFrame@@QAX@Z
 ?execSetLocation@AActor@@QAEXAAUFFrame@@QAX@Z
 ?execSetOwner@AActor@@QAEXAAUFFrame@@QAX@Z
 ?execSetPhysics@AActor@@QAEXAAUFFrame@@QAX@Z
 ?execSetRenderFrame@UCanvas@@QAEXAAUFFrame@@QAX@Z
 ?execSetRotation@AActor@@QAEXAAUFFrame@@QAX@Z
 ?execSetSurfaceTexture@AActor@@QAEXAAUFFrame@@QAX@Z
 ?execSetTimer@AActor@@QAEXAAUFFrame@@QAX@Z
 ?execSleep@AActor@@QAEXAAUFFrame@@QAX@Z
 ?execSparkTick@ACTVE_Sparks@@QAEXAAUFFrame@@QAX@Z
 ?execSpawn@AActor@@QAEXAAUFFrame@@QAX@Z
 ?execSpawnChain@ACTVE_ChainSpark@@QAEXAAUFFrame@@QAX@Z
 ?execSpawnUsingString@AActor@@QAEXAAUFFrame@@QAX@Z
 ?execStartDialog@AActor@@QAEXAAUFFrame@@QAX@Z
 ?execStopWaiting@APawn@@QAEXAAUFFrame@@QAX@Z
 ?execStrLen@UCanvas@@QAEXAAUFFrame@@QAX@Z
 ?execStrafeFacing@APawn@@QAEXAAUFFrame@@QAX@Z
 ?execStrafeTo@APawn@@QAEXAAUFFrame@@QAX@Z
 ?execTestCondition@AActor@@QAEXAAUFFrame@@QAX@Z
 ?execTextSize@UCanvas@@QAEXAAUFFrame@@QAX@Z
 ?execTextSize@UScriptedTexture@@QAEXAAUFFrame@@QAX@Z
 ?execTouchingActors@AActor@@QAEXAAUFFrame@@QAX@Z
 ?execTrace@AActor@@QAEXAAUFFrame@@QAX@Z
 ?execTraceActors@AActor@@QAEXAAUFFrame@@QAX@Z
 ?execTricorderActors@AActor@@QAEXAAUFFrame@@QAX@Z
 ?execTurnTo@APawn@@QAEXAAUFFrame@@QAX@Z
 ?execTurnToward@APawn@@QAEXAAUFFrame@@QAX@Z
 ?execTweenAnim@AActor@@QAEXAAUFFrame@@QAX@Z
 ?execUnWarp@AWarpZoneInfo@@QAEXAAUFFrame@@QAX@Z
 ?execUpdateBeamSections@AActor@@QAEXAAUFFrame@@QAX@Z
 ?execUpdateMultiSkins@AActor@@QAEXAAUFFrame@@QAX@Z
 ?execUpdateURL@APlayerPawn@@QAEXAAUFFrame@@QAX@Z
 ?execVisibleActors@AActor@@QAEXAAUFFrame@@QAX@Z
 ?execVisibleCollidingActors@AActor@@QAEXAAUFFrame@@QAX@Z
 ?execWaitForLanding@APawn@@QAEXAAUFFrame@@QAX@Z
 ?execWarp@AWarpZoneInfo@@QAEXAAUFFrame@@QAX@Z
 ?execWatermark@AStatLogFile@@QAEXAAUFFrame@@QAX@Z
 ?execWeatherTick@ACTVE_Weather@@QAEXAAUFFrame@@QAX@Z
 ?execWriteToFile@ATimeDemo@@QAEXAAUFFrame@@QAX@Z
 ?execZoneActors@AZoneInfo@@QAEXAAUFFrame@@QAX@Z
 ?execactorReachable@APawn@@QAEXAAUFFrame@@QAX@Z
 ?execdescribeSpec@ANavigationPoint@@QAEXAAUFFrame@@QAX@Z
 ?execpointReachable@APawn@@QAEXAAUFFrame@@QAX@Z
 ?findBestReachable@FReachSpec@@QAEHAAVFVector@@0PAVAPawn@@@Z
 ?findNewFloor@APawn@@AAEHVFVector@@MMH@Z
 ?findPathTo@APawn@@QAEHVFVector@@HAAPAVAActor@@H@Z
 ?findPathToward@APawn@@QAEHPAVAActor@@HAAPAV2@H@Z
 ?findPathTowardBestInventory@APawn@@QAEMAAPAVAActor@@HMH@Z
 ?findRandomDest@APawn@@QAEHAAPAVAActor@@@Z
 ?findScoutStart@FPathBuilder@@AAEHVFVector@@@Z
 ?findWaterLine@ACTVE_PlayerPawn@@AAEXVFVector@@AAV2@@Z
 ?findWaterLine@APawn@@AAEXVFVector@@AAV2@@Z
 ?fixedTurn@AActor@@QAEHHHH@Z
 ?flyMove@APawn@@QAEHVFVector@@PAVAActor@@MH@Z
 ?flyReachable@APawn@@QAEHVFVector@@MHPAVAActor@@@Z
 ?getScout@FPathBuilder@@AAEXXZ
 ?hidePaths@FPathBuilder@@QAEHPAVULevel@@@Z
 ?insertReachSpec@FPathBuilder@@AAEHPAHAAVFReachSpec@@@Z
 ?jumpLanding@APawn@@QAEXVFVector@@AAV2@H@Z
 ?jumpReachable@APawn@@QAEHVFVector@@MHPAVAActor@@@Z
 ?moveSmooth@AActor@@QAEHVFVector@@@Z
 ?moveToward@APawn@@QAEHABVFVector@@@Z
 ?newtonianRotation@APawn@@QAEXM@Z
 ?performPhysics@AActor@@UAEXM@Z
 ?performPhysics@ACTVE_Pawn@@UAEXM@Z
 ?performPhysics@ACTVE_PlayerPawn@@UAEXM@Z
 ?performPhysics@APawn@@UAEXM@Z
 ?physBeamFadeTailCatchup@AActor@@QAEXM@Z
 ?physBeamFadeTailStationary@AActor@@QAEXM@Z
 ?physBubble@AActor@@QAEXM@Z
 ?physCTVE_Sparks@AActor@@QAEXM@Z
 ?physClambering@ACTVE_PlayerPawn@@QAEXMH@Z
 ?physClimbing@ACTVE_PlayerPawn@@QAEXMH@Z
 ?physDisintigration@AActor@@QAEXM@Z
 ?physDisintigrationPhaser@AActor@@QAEXM@Z
 ?physEMPulseRifle@AActor@@QAEXM@Z
 ?physEMPulseRifleQuad@AActor@@QAEXM@Z
 ?physEXP_Cinder@AActor@@QAEXM@Z
 ?physEXP_Column@AActor@@QAEXM@Z
 ?physEXP_Core@AActor@@QAEXM@Z
 ?physEXP_Particle@AActor@@QAEXM@Z
 ?physEXP_Ring@AActor@@QAEXM@Z
 ?physEXP_Smoke@AActor@@QAEXM@Z
 ?physEXP_Trail@AActor@@QAEXM@Z
 ?physExhaustJet@AActor@@QAEXM@Z
 ?physFalling@AActor@@QAEXMH@Z
 ?physFalling@ACTVE_PlayerPawn@@QAEXMH@Z
 ?physFanParticle@AActor@@QAEXM@Z
 ?physFire_Gas@AActor@@QAEXM@Z
 ?physFish@APawn@@QAEXMH@Z
 ?physFishInTank@AActor@@QAEXM@Z
 ?physFlying@APawn@@QAEXMH@Z
 ?physGasCloudM4@AActor@@QAEXM@Z
 ?physHanging@ACTVE_PlayerPawn@@QAEXMH@Z
 ?physHotSpark@AActor@@QAEXM@Z
 ?physLava@AActor@@QAEXM@Z
 ?physMovingBrush@AActor@@QAEXM@Z
 ?physNewtonian@AActor@@QAEXM@Z
 ?physNewtonian@APawn@@QAEXM@Z
 ?physParticle@AActor@@QAEXM@Z
 ?physPathing@AActor@@QAEXM@Z
 ?physPipePath@AActor@@QAEXM@Z
 ?physPlasmaJet@AActor@@QAEXM@Z
 ?physPlasmaThrower@AActor@@QAEXM@Z
 ?physProjectile@AActor@@QAEXMH@Z
 ?physRolling@AActor@@QAEXMH@Z
 ?physRotatingPitch@AActor@@QAEXM@Z
 ?physRotatingYaw@AActor@@QAEXM@Z
 ?physSimpleWalking@APawn@@QAEXMH@Z
 ?physSmoke@AActor@@QAEXM@Z
 ?physSpark@AActor@@QAEXM@Z
 ?physSpider@APawn@@QAEXMH@Z
 ?physSpiralJet@AActor@@QAEXM@Z
 ?physSteamJet@AActor@@QAEXM@Z
 ?physSwarmObject@AActor@@QAEXM@Z
 ?physSwimming@ACTVE_PlayerPawn@@QAEXMH@Z
 ?physSwimming@APawn@@QAEXMH@Z
 ?physTrailer@AActor@@QAEXM@Z
 ?physWalking@ACTVE_Pawn@@QAEXMH@Z
 ?physWalking@ACTVE_PlayerPawn@@QAEXMH@Z
 ?physWalking@APawn@@QAEXMH@Z
 ?physWaterRing@AActor@@QAEXM@Z
 ?physWeather@AActor@@QAEXM@Z
 ?physicsRotation@AActor@@QAEXM@Z
 ?physicsRotation@ACTVE_PlayerPawn@@QAEXMVFVector@@@Z
 ?physicsRotation@APawn@@QAEXMVFVector@@@Z
 ?pointReachable@APawn@@QAEHVFVector@@H@Z
 ?processHitWall@AActor@@QAEXVFVector@@PAV1@@Z
 ?processHitWall@ACTVE_Pawn@@AAEXVFVector@@PAVAActor@@@Z
 ?processLanded@AActor@@QAEXVFVector@@PAV1@MH@Z
 ?processLanded@ACTVE_PlayerPawn@@AAEXVFVector@@PAVAActor@@MH@Z
 ?removePaths@FPathBuilder@@QAEHPAVULevel@@@Z
 ?rotateToward@APawn@@QAEHABVFVector@@@Z
 ?setMoveTimer@APawn@@QAEXM@Z
 ?setPhysics@AActor@@QAEXEPAV1@@Z
 ?showPaths@FPathBuilder@@QAEHPAVULevel@@@Z
 ?specFor@FPathBuilder@@AAEHPAVAActor@@0@Z
 ?startSwimming@ACTVE_PlayerPawn@@AAEXVFVector@@MMH@Z
 ?startSwimming@APawn@@QAEXVFVector@@MMH@Z
 ?stepUp@ACTVE_Pawn@@AAEXVFVector@@00AAUFCheckResult@@@Z
 ?stepUp@APawn@@AAEXVFVector@@00AAUFCheckResult@@@Z
 ?supports@FReachSpec@@QAEHHHH@Z
 ?swimMove@APawn@@QAEHVFVector@@PAVAActor@@MH@Z
 ?swimReachable@APawn@@QAEHVFVector@@MHPAVAActor@@@Z
 ?undefinePaths@FPathBuilder@@QAEXPAVULevel@@@Z
 ?vtblPad0@URenderDevice@@UAEXXZ
 ?vtblPad1@URenderDevice@@UAEXXZ
 ?vtblPad2@URenderDevice@@UAEXXZ
 ?vtblPad3@URenderDevice@@UAEXXZ
 ?vtblPad4@URenderDevice@@UAEXXZ
 ?vtblPad5@URenderDevice@@UAEXXZ
 ?vtblPad6@URenderDevice@@UAEXXZ
 ?vtblPad7@URenderDevice@@UAEXXZ
 ?walkMove@APawn@@QAEHVFVector@@AAUFCheckResult@@PAVAActor@@MH@Z
 ?walkReachable@APawn@@QAEHVFVector@@MHPAVAActor@@@Z
 GPackage
 _DllMain@12
 autoclassAActor
 autoclassABrush
 autoclassAButtonMarker
 autoclassACTVE_BeamFX
 autoclassACTVE_Camera
 autoclassACTVE_ChainSpark
 autoclassACTVE_Commander
 autoclassACTVE_Dialog
 autoclassACTVE_DialogInput
 autoclassACTVE_Director
 autoclassACTVE_Document
 autoclassACTVE_EXP_Smoke
 autoclassACTVE_Engine
 autoclassACTVE_Generator
 autoclassACTVE_Hud
 autoclassACTVE_InterpolationPoint
 autoclassACTVE_NavigationAssist
 autoclassACTVE_Particle
 autoclassACTVE_Pawn
 autoclassACTVE_PlayerPawn
 autoclassACTVE_PlayerStart
 autoclassACTVE_RenderConstraint
 autoclassACTVE_Sparks
 autoclassACTVE_Spline
 autoclassACTVE_Sprite
 autoclassACTVE_Tangent
 autoclassACTVE_TricorderInfo
 autoclassACTVE_Weather
 autoclassACamera
 autoclassACarcass
 autoclassADecal
 autoclassADecoration
 autoclassAEffects
 autoclassAGameInfo
 autoclassAGameReplicationInfo
 autoclassAHUD
 autoclassAInfo
 autoclassAInternetInfo
 autoclassAInterpolationPoint
 autoclassAInventory
 autoclassAInventorySpot
 autoclassAKeypoint
 autoclassALevelInfo
 autoclassALiftCenter
 autoclassALiftExit
 autoclassALight
 autoclassAMenu
 autoclassAMover
 autoclassAMutator
 autoclassANavigationPoint
 autoclassAPathNode
 autoclassAPawn
 autoclassAPlayerPawn
 autoclassAPlayerReplicationInfo
 autoclassAPlayerStart
 autoclassAProjectile
 autoclassAReplicationInfo
 autoclassASavedMove
 autoclassAScout
 autoclassASkyZoneInfo
 autoclassASpecialEvent
 autoclassAStatLog
 autoclassAStatLogFile
 autoclassATeleporter
 autoclassATimeDemo
 autoclassATrigger
 autoclassATriggerLight
 autoclassATriggerMarker
 autoclassATriggers
 autoclassAWarpZoneInfo
 autoclassAWarpZoneMarker
 autoclassAWeapon
 autoclassAZoneInfo
 autoclassAlocationid
 autoclassUActorChannel
 autoclassUAudioSubsystem
 autoclassUBitmap
 autoclassUBspNodes
 autoclassUBspSurfs
 autoclassUC3DFLIC
 autoclassUC3DMESHSTATE
 autoclassUCTVE_DllObject
 autoclassUCTVE_MultiMesh
 autoclassUCanvas
 autoclassUChannel
 autoclassUClient
 autoclassUConsole
 autoclassUControlChannel
 autoclassUDemoPlayPendingLevel
 autoclassUDemoRecConnection
 autoclassUDemoRecDriver
 autoclassUEngine
 autoclassUFileChannel
 autoclassUFliTexture
 autoclassUFont
 autoclassUGameEngine
 autoclassUInput
 autoclassULevel
 autoclassULevelBase
 autoclassULevelSummary
 autoclassULodMesh
 autoclassUMesh
 autoclassUModel
 autoclassUMusic
 autoclassUNetConnection
 autoclassUNetDriver
 autoclassUNetPendingLevel
 autoclassUPackageMapLevel
 autoclassUPalette
 autoclassUPendingLevel
 autoclassUPlayer
 autoclassUPolys
 autoclassUPrimitive
 autoclassURenderBase
 autoclassURenderDevice
 autoclassURenderIterator
 autoclassUScriptedTexture
 autoclassUServerCommandlet
 autoclassUSound
 autoclassUTexture
 autoclassUVectors
 autoclassUVerts
 autoclassUViewport
 intAActorexecAllActors
 intAActorexecAllPathNodes
 intAActorexecAllPawns
 intAActorexecAutonomousPhysics
 intAActorexecBasedActors
 intAActorexecC3DActorInit
 intAActorexecC3DApplyIKOnBasePose
 intAActorexecC3DApplyRotation
 intAActorexecC3DApplyWorldRotation
 intAActorexecC3DAttach
 intAActorexecC3DBonedTrace
 intAActorexecC3DClearIkTarget
 intAActorexecC3DClearSkinAnim
 intAActorexecC3DCopySkinAnimState
 intAActorexecC3DDetach
 intAActorexecC3DDoesBoneExist
 intAActorexecC3DDrawHelpObjects
 intAActorexecC3DFinishAnim
 intAActorexecC3DGetAnimName
 intAActorexecC3DGetAnimSource
 intAActorexecC3DGetAnimSourceFromName
 intAActorexecC3DGetAttachPtCoords
 intAActorexecC3DGetAttachPtCoordsPrecomputed
 intAActorexecC3DGetAttachPtOffset
 intAActorexecC3DGetBoundingBox
 intAActorexecC3DGetJointLocalPos
 intAActorexecC3DGetJointLocalPosRel
 intAActorexecC3DGetJointWorldPos
 intAActorexecC3DGetJointWorldPosRel
 intAActorexecC3DGetNextClassProps
 intAActorexecC3DGetNumAnims
 intAActorexecC3DGetNumAttachPts
 intAActorexecC3DInitAltMeshes
 intAActorexecC3DIsAnimating
 intAActorexecC3DIsBoned
 intAActorexecC3DLoopAnim
 intAActorexecC3DPlayAnim
 intAActorexecC3DPlaySkinAnim
 intAActorexecC3DRemoveRotation
 intAActorexecC3DSetFullBodyAnimType
 intAActorexecC3DSetIkTargetOrientation
 intAActorexecC3DSetIkTargetOrientationAbs
 intAActorexecC3DSetIkTargetPosition
 intAActorexecC3DSetIkTargetPositionAbs
 intAActorexecC3DSetSkinAnim
 intAActorexecC3DThumbDebug
 intAActorexecC3DTweenAnim
 intAActorexecC3DTweenOutAnim
 intAActorexecC3DTweenSkinAnim
 intAActorexecC3DTweenSkinAnimDelay
 intAActorexecC3DUpdateAnimationState
 intAActorexecC3DUsesC3DMesh
 intAActorexecCheckFOV
 intAActorexecChildActors
 intAActorexecConsoleCommand
 intAActorexecDemoPlaySound
 intAActorexecDestroy
 intAActorexecEnemyActors
 intAActorexecError
 intAActorexecFastForward
 intAActorexecFindBestDialogLine
 intAActorexecFinishAnim
 intAActorexecFinishInterpolation
 intAActorexecGetAnimDuration
 intAActorexecGetAnimGroup
 intAActorexecGetDialogueCameraData
 intAActorexecGetMapName
 intAActorexecGetMapTitle
 intAActorexecGetNextInt
 intAActorexecGetNextIntDesc
 intAActorexecGetNextSkin
 intAActorexecGetRegion
 intAActorexecGetRendererFlags
 intAActorexecGetSoundDuration
 intAActorexecGetSurfaceTexture
 intAActorexecGetURLMap
 intAActorexecGetWaterLine
 intAActorexecGhostActors
 intAActorexecHasAnim
 intAActorexecInterpolateRotation
 intAActorexecIsAnimating
 intAActorexecIsDialogLineSpecial
 intAActorexecIsDialogThreadPlaying
 intAActorexecIsKeyDown
 intAActorexecListActors
 intAActorexecLoopAnim
 intAActorexecMakeGhost
 intAActorexecMakeNoise
 intAActorexecMove
 intAActorexecMoveSmooth
 intAActorexecPerformPhysics
 intAActorexecPlayAnim
 intAActorexecPlayDummySound
 intAActorexecPlayOwnedSound
 intAActorexecPlaySound
 intAActorexecPlayerCanSeeMe
 intAActorexecPointCheck
 intAActorexecPollC3DFinishAnim
 intAActorexecPollFinishAnim
 intAActorexecPollFinishInterpolation
 intAActorexecPollSleep
 intAActorexecPower
 intAActorexecRadiusActors
 intAActorexecRadiusPathNodes
 intAActorexecRadiusPawns
 intAActorexecRadiusVisiblePathNodes
 intAActorexecResizeActor
 intAActorexecScriptTick
 intAActorexecSetBase
 intAActorexecSetCollision
 intAActorexecSetCollisionSize
 intAActorexecSetLocation
 intAActorexecSetOwner
 intAActorexecSetPhysics
 intAActorexecSetRotation
 intAActorexecSetSurfaceTexture
 intAActorexecSetTimer
 intAActorexecSleep
 intAActorexecSpawn
 intAActorexecSpawnUsingString
 intAActorexecStartDialog
 intAActorexecTestCondition
 intAActorexecTouchingActors
 intAActorexecTrace
 intAActorexecTraceActors
 intAActorexecTricorderActors
 intAActorexecTweenAnim
 intAActorexecUpdateBeamSections
 intAActorexecUpdateMultiSkins
 intAActorexecVisibleActors
 intAActorexecVisibleCollidingActors
 intACTVE_ChainSparkexecChainSparkTick
 intACTVE_ChainSparkexecForceUpdate
 intACTVE_ChainSparkexecSpawnChain
 intACTVE_DialogInputexecDialogTick
 intACTVE_DialogexecPlayDialogLine
 intACTVE_DocumentexecFindDocument
 intACTVE_DocumentexecLoadDocument
 intACTVE_DocumentexecLocalizeDocument
 intACTVE_HudexecDeleteByFileID
 intACTVE_HudexecDrawLoadGameList
 intACTVE_HudexecLoadByFileID
 intACTVE_PawnexecPollMoveTo2
 intACTVE_SparksexecSparkTick
 intACTVE_SplineexecGetSplineData
 intACTVE_WeatherexecInitialSetUp
 intACTVE_WeatherexecWeatherTick
 intADecalexecAttachDecal
 intADecalexecDetachDecal
 intAGameInfoexecGetNetworkNumber
 intAGameInfoexecParseKillMessage
 intALevelInfoexecGetAddressURL
 intALevelInfoexecGetLocalURL
 intANavigationPointexecdescribeSpec
 intAPawnexecAddPawn
 intAPawnexecCanSee
 intAPawnexecClearLatentMovement
 intAPawnexecClearPaths
 intAPawnexecClientHearSound
 intAPawnexecEAdjustJump
 intAPawnexecFindBestInventoryPath
 intAPawnexecFindPathTo
 intAPawnexecFindPathToward
 intAPawnexecFindRandomDest
 intAPawnexecFindStairRotation
 intAPawnexecLineOfSightTo
 intAPawnexecMoveTo
 intAPawnexecMoveTo2
 intAPawnexecMoveToward
 intAPawnexecPickAnyTarget
 intAPawnexecPickTarget
 intAPawnexecPickWallAdjust
 intAPawnexecPollMoveTo
 intAPawnexecPollMoveToward
 intAPawnexecPollStrafeFacing
 intAPawnexecPollStrafeTo
 intAPawnexecPollTurnTo
 intAPawnexecPollTurnToward
 intAPawnexecPollWaitForLanding
 intAPawnexecRemovePawn
 intAPawnexecStopWaiting
 intAPawnexecStrafeFacing
 intAPawnexecStrafeTo
 intAPawnexecTurnTo
 intAPawnexecTurnToward
 intAPawnexecWaitForLanding
 intAPawnexecactorReachable
 intAPawnexecpointReachable
 intAPlayerPawnexecClientTravel
 intAPlayerPawnexecConsoleCommand
 intAPlayerPawnexecCopyToClipboard
 intAPlayerPawnexecGetDefaultURL
 intAPlayerPawnexecGetEntryLevel
 intAPlayerPawnexecGetPlayerNetworkAddress
 intAPlayerPawnexecPasteFromClipboard
 intAPlayerPawnexecResetKeyboard
 intAPlayerPawnexecUpdateURL
 intAStatLogFileexecCloseLog
 intAStatLogFileexecFileFlush
 intAStatLogFileexecFileLog
 intAStatLogFileexecGetChecksum
 intAStatLogFileexecOpenLog
 intAStatLogFileexecWatermark
 intAStatLogexecBatchLocal
 intAStatLogexecBrowseRelativeLocalURL
 intAStatLogexecExecuteLocalLogBatcher
 intAStatLogexecExecuteSilentLogBatcher
 intAStatLogexecExecuteWorldLogBatcher
 intAStatLogexecGetGMTRef
 intAStatLogexecGetMapFileName
 intAStatLogexecInitialCheck
 intAStatLogexecLogMutator
 intATimeDemoexecCloseFile
 intATimeDemoexecOpenFile
 intATimeDemoexecWriteToFile
 intAWarpZoneInfoexecUnWarp
 intAWarpZoneInfoexecWarp
 intAZoneInfoexecZoneActors
 intUCanvasexecDrawActor
 intUCanvasexecDrawClippedActor
 intUCanvasexecDrawPortal
 intUCanvasexecDrawScaledText
 intUCanvasexecDrawText
 intUCanvasexecDrawTextClipped
 intUCanvasexecDrawTile
 intUCanvasexecDrawTileClipped
 intUCanvasexecGetScreenCoords
 intUCanvasexecResetRenderFrame
 intUCanvasexecSetRenderFrame
 intUCanvasexecStrLen
 intUCanvasexecTextSize
 intUConsoleexecConsoleCommand
 intUScriptedTextureexecDrawColoredText
 intUScriptedTextureexecDrawText
 intUScriptedTextureexecDrawTile
 intUScriptedTextureexecReplaceTexture
 intUScriptedTextureexecTextSize
