LIBRARY Render
EXPORTS
 ??0FLightManagerBase@@QAE@ABV0@@Z
 ??0FLightManagerBase@@QAE@XZ
 ??0FSpanBuffer@@QAE@ABV0@AAVFMemStack@@@Z
 ??0FSpanBuffer@@QAE@XZ
 ??0URender@@QAE@ABV0@@Z
 ??0URender@@QAE@XZ
 ??0myclass@@QAE@ABV0@@Z
 ??0myclass@@QAE@XZ
 ??1URender@@UAE@XZ
 ??2URender@@SAPAXIPAVUObject@@VFName@@K@Z
 ??2URender@@SAPAXIPAW4EInternal@@@Z
 ??4FLightManagerBase@@QAEAAV0@ABV0@@Z
 ??4FSpanBuffer@@QAEAAV0@ABV0@@Z
 ??4URender@@QAEAAV0@ABV0@@Z
 ??4myclass@@QAEAAV0@ABV0@@Z
 ??_7FLightManagerBase@@6B@
 ??_7URender@@6BFExec@@@
 ??_7URender@@6BUObject@@@
 ??_7myclass@@6B@
 ??_C@_03MPFC@abc?$AA@
 ?AllocIndex@FSpanBuffer@@QAEXFFPAVFMemStack@@@Z
 ?AllocIndexForScreen@FSpanBuffer@@QAEXFFPAVFMemStack@@@Z
 ?AssertEmpty@FSpanBuffer@@QAEXPAD@Z
 ?AssertGoodEnough@FSpanBuffer@@QAEXPAD@Z
 ?AssertNotEmpty@FSpanBuffer@@QAEXPAD@Z
 ?AssertValid@FSpanBuffer@@QAEXPAD@Z
 ?BoundVisible@URender@@UAEHPAUFSceneNode@@PAVFBox@@PAVFSpanBuffer@@AAUFScreenBounds@@@Z
 ?BoxIsVisible@FSpanBuffer@@QAEHHHHH@Z
 ?CleanupProjectedShadow@URender@@QAEXPAUFDynamicSprite@@@Z
 ?ClipBspSurf@URender@@QAEHHAAPAPAUFTransform@@@Z
 ?ClipDecal@URender@@QAEHPAUFSceneNode@@PAVFDecal@@PAVUModel@@PAVFBspSurf@@PAUFSavedPoly@@AAPAPAUFTransTexture@@AAH@Z
 ?CopyFromRaster@FSpanBuffer@@QAEHAAV1@FFPAUFRasterSpan@@@Z
 ?CopyFromRasterUpdate@FSpanBuffer@@QAEHAAV1@FFPAUFRasterSpan@@@Z
 ?CopyIndexFrom@FSpanBuffer@@QAEXABV1@PAVFMemStack@@@Z
 ?CreateChildFrame@URender@@UAEPAUFSceneNode@@PAU2@PAVFSpanBuffer@@PAVULevel@@HHMABVFPlane@@ABVFCoords@@PAUFScreenBounds@@@Z
 ?CreateMasterFrame@URender@@UAEPAUFSceneNode@@PAVUViewport@@VFVector@@VFRotator@@PAUFScreenBounds@@@Z
 ?Deproject@URender@@UAEHPAUFSceneNode@@HHAAVFVector@@@Z
 ?Destroy@URender@@UAEXXZ
 ?DrawActor@URender@@UAEXPAUFSceneNode@@PAVAActor@@@Z
 ?DrawActorSprite@URender@@QAEXPAUFSceneNode@@PAUFDynamicSprite@@@Z
 ?DrawActorSpriteMM@URender@@QAEXPAUFSceneNode@@PAUFDynamicSprite@@PAVUCTVE_MultiMesh@@@Z
 ?DrawBox@URender@@UAEXPAUFSceneNode@@VFPlane@@KVFVector@@2@Z
 ?DrawCircle@URender@@UAEXPAUFSceneNode@@VFPlane@@KAAVFVector@@M@Z
 ?DrawFrame@URender@@QAEXPAUFSceneNode@@@Z
 ?DrawLodMesh@URender@@QAEXPAUFDynamicSprite@@PAUFSceneNode@@PAVAActor@@2PAVFSpanBuffer@@PAVAZoneInfo@@ABVFCoords@@PAUFVolActorLink@@PAUFActorLink@@K@Z
 ?DrawMesh@URender@@QAEXPAUFDynamicSprite@@PAUFSceneNode@@PAVAActor@@2PAVFSpanBuffer@@PAVAZoneInfo@@ABVFCoords@@PAUFVolActorLink@@PAUFActorLink@@K@Z
 ?DrawPaths@URender@@UAEXPAUFSceneNode@@@Z
 ?DrawProjectedShadow@URender@@QAEXPAUFDynamicSprite@@PAUFSceneNode@@@Z
 ?DrawStats@URender@@QAEXPAUFSceneNode@@@Z
 ?DrawWorld@URender@@UAEXPAUFSceneNode@@@Z
 ?DynLightLeaves@URender@@2PAHA
 ?DynLightSurfs@URender@@2PAHA
 ?Dynamic@URender@@QAEAAPAUFDynamicItem@@HH@Z
 ?DynamicsCache@URender@@2PAUFDynamicsCache@1@A
 ?Exec@URender@@UAEHPBDAAVFOutputDevice@@@Z
 ?FinishMasterFrame@URender@@UAEXXZ
 ?GDynMem@@3VFMemStack@@A
 ?GLightManager@@3PAVFLightManagerBase@@A
 ?GRender@@3PAVURender@@A
 ?GSceneMem@@3VFMemStack@@A
 ?GetFogZone@URender@@UAEPAVAZoneInfo@@PAVULevel@@H@Z
 ?GetValidRange@FSpanBuffer@@QAEXPAF0@Z
 ?GetVisibleSurfs@URender@@UAEXPAVUViewport@@AAV?$TArray@H@@@Z
 ?GlobalLighting@URender@@UAEXHPAVAActor@@AAMAAVFPlane@@@Z
 ?Init@URender@@UAEXPAVUEngine@@@Z
 ?InternalConstructor@URender@@SAXPAX@Z
 ?LeafLights@URender@@2PAPAUFVolActorLink@@A
 ?LeafVolumetricLighting@URender@@QAEXPAUFSceneNode@@PAVUModel@@H@Z
 ?MaxLeafLights@URender@@2HA
 ?MaxSurfLights@URender@@2HA
 ?MergeWith@FSpanBuffer@@QAEXABV1@@Z
 ?NumDynLightLeaves@URender@@2HA
 ?NumDynLightSurfs@URender@@2HA
 ?OccludeBsp@URender@@QAEXPAUFSceneNode@@@Z
 ?OccludeFrame@URender@@QAEXPAUFSceneNode@@@Z
 ?PointCache@URender@@2PAUFStampedPoint@1@A
 ?PostRender@URender@@UAEXPAUFSceneNode@@@Z
 ?PreRender@URender@@UAEXPAUFSceneNode@@@Z
 ?Precache@URender@@UAEXPAVUViewport@@@Z
 ?PrepareProjectedShadow@URender@@QAEXPAUFDynamicSprite@@PAUFSceneNode@@PAUFTransTexture@@PAUFMeshWedge@@@Z
 ?PrivateStaticClass@URender@@0VUClass@@A
 ?Project@URender@@UAEHPAUFSceneNode@@ABVFVector@@AAM2PAM@Z
 ?Release@FSpanBuffer@@QAEXXZ
 ?SetDistanceClipping@URender@@UAEXPAUFSceneNode@@@Z
 ?SetDistanceFogging@URender@@UAEXPAUFSceneNode@@@Z
 ?SetupDynamics@URender@@QAEXPAUFSceneNode@@PAVAActor@@@Z
 ?ShowStat@URender@@QAAXPAUFSceneNode@@PBDZZ
 ?Stamp@URender@@2KA
 ?StaticClass@URender@@SAPAVUClass@@XZ
 ?StaticConstructor@URender@@QAEXXZ
 ?SurfLights@URender@@2PAPAUFActorLink@@A
 ?VectorMem@URender@@2VFMemStack@@A
 ?timtim@myclass@@UAEXXZ
 ?xyzzy@myclass@@UAGXABVFString@@H@Z
 GPackage
 _DllMain@12
 autoclassURender
