 ??0FCategoryItem@@QAE@ABV0@@Z
 ??0FCategoryItem@@QAE@PAVWPropertiesBase@@PAVFTreeItem@@PAVUClass@@VFName@@H@Z
 ??0FClassItem@@QAE@ABV0@@Z
 ??0FClassItem@@QAE@PAVWPropertiesBase@@PAVFTreeItem@@KPBDPAVUClass@@@Z
 ??0FClassItem@@QAE@XZ
 ??0FCommandTarget@@QAE@ABV0@@Z
 ??0FCommandTarget@@QAE@XZ
 ??0FConfigItem@@QAE@ABV0@@Z
 ??0FConfigItem@@QAE@ABVFPreferencesInfo@@PAVWPropertiesBase@@PAVFTreeItem@@@Z
 ??0FConfigItem@@QAE@XZ
 ??0FControlSnoop@@QAE@ABV0@@Z
 ??0FControlSnoop@@QAE@XZ
 ??0FDelegate@@QAE@ABU0@@Z
 ??0FDelegate@@QAE@PAVFCommandTarget@@P81@AEXXZ@Z
 ??0FDelegateInt@@QAE@ABU0@@Z
 ??0FDelegateInt@@QAE@PAVFCommandTarget@@P81@AEXH@Z@Z
 ??0FHeaderItem@@QAE@ABV0@@Z
 ??0FHeaderItem@@QAE@PAVWPropertiesBase@@PAVFTreeItem@@H@Z
 ??0FHeaderItem@@QAE@XZ
 ??0FObjectConfigItem@@QAE@ABV0@@Z
 ??0FObjectConfigItem@@QAE@PAVWPropertiesBase@@PAVFTreeItem@@PBD2HVFName@@@Z
 ??0FObjectsItem@@QAE@ABV0@@Z
 ??0FObjectsItem@@QAE@PAVWPropertiesBase@@PAVFTreeItem@@KPBDH@Z
 ??0FObjectsItem@@QAE@XZ
 ??0FPropertyItem@@QAE@ABV0@@Z
 ??0FPropertyItem@@QAE@PAVWPropertiesBase@@PAVFTreeItem@@PAVUProperty@@VFName@@HH@Z
 ??0FPropertyItemBase@@QAE@ABV0@@Z
 ??0FPropertyItemBase@@QAE@PAVWPropertiesBase@@PAVFTreeItem@@KPBD@Z
 ??0FPropertyItemBase@@QAE@XZ
 ??0FTreeItem@@QAE@ABV0@@Z
 ??0FTreeItem@@QAE@PAVWPropertiesBase@@PAV0@H@Z
 ??0FTreeItem@@QAE@XZ
 ??0FTreeItemBase@@QAE@ABV0@@Z
 ??0FTreeItemBase@@QAE@XZ
 ??0WButton@@QAE@ABV0@@Z
 ??0WButton@@QAE@PAVWWindow@@HUFDelegate@@P6GJPAUHWND__@@IIJ@Z@Z
 ??0WButton@@QAE@XZ
 ??0WClassProperties@@QAE@ABV0@@Z
 ??0WClassProperties@@QAE@VFName@@KPBDPAVUClass@@@Z
 ??0WClassProperties@@QAE@XZ
 ??0WComboBox@@QAE@ABV0@@Z
 ??0WComboBox@@QAE@PAVWWindow@@HP6GJPAUHWND__@@IIJ@Z@Z
 ??0WComboBox@@QAE@XZ
 ??0WConfigProperties@@QAE@ABV0@@Z
 ??0WConfigProperties@@QAE@VFName@@PBD@Z
 ??0WConfigProperties@@QAE@XZ
 ??0WControl@@QAE@ABV0@@Z
 ??0WControl@@QAE@PAVWWindow@@HP6GJPAUHWND__@@IIJ@Z@Z
 ??0WControl@@QAE@XZ
 ??0WCoolButton@@QAE@ABV0@@Z
 ??0WCoolButton@@QAE@PAVWWindow@@HUFDelegate@@K@Z
 ??0WCoolButton@@QAE@XZ
 ??0WDialog@@QAE@ABV0@@Z
 ??0WDialog@@QAE@VFName@@HPAVWWindow@@@Z
 ??0WDialog@@QAE@XZ
 ??0WDragInterceptor@@QAE@ABV0@@Z
 ??0WDragInterceptor@@QAE@PAVWWindow@@UFPoint@@UFRect@@1@Z
 ??0WDragInterceptor@@QAE@XZ
 ??0WEdit@@QAE@ABV0@@Z
 ??0WEdit@@QAE@PAVWWindow@@HP6GJPAUHWND__@@IIJ@Z@Z
 ??0WEdit@@QAE@XZ
 ??0WEditTerminal@@QAE@ABV0@@Z
 ??0WEditTerminal@@QAE@PAVWTerminalBase@@@Z
 ??0WItemBox@@QAE@ABV0@@Z
 ??0WItemBox@@QAE@PAVWWindow@@H@Z
 ??0WItemBox@@QAE@XZ
 ??0WLabel@@QAE@ABV0@@Z
 ??0WLabel@@QAE@PAVWWindow@@HP6GJPAUHWND__@@IIJ@Z@Z
 ??0WLabel@@QAE@XZ
 ??0WListBox@@QAE@ABV0@@Z
 ??0WListBox@@QAE@PAVWWindow@@HP6GJPAUHWND__@@IIJ@Z@Z
 ??0WListBox@@QAE@XZ
 ??0WLog@@QAE@ABV0@@Z
 ??0WLog@@QAE@PBDAAPAVFArchive@@VFName@@PAVWWindow@@@Z
 ??0WLog@@QAE@XZ
 ??0WObjectProperties@@QAE@ABV0@@Z
 ??0WObjectProperties@@QAE@VFName@@KPBDPAVWWindow@@H@Z
 ??0WObjectProperties@@QAE@XZ
 ??0WPasswordDialog@@QAE@ABV0@@Z
 ??0WPasswordDialog@@QAE@XZ
 ??0WProgressBar@@QAE@ABV0@@Z
 ??0WProgressBar@@QAE@PAVWWindow@@HP6GJPAUHWND__@@IIJ@Z@Z
 ??0WProgressBar@@QAE@XZ
 ??0WProperties@@QAE@ABV0@@Z
 ??0WProperties@@QAE@VFName@@PAVWWindow@@@Z
 ??0WProperties@@QAE@XZ
 ??0WPropertiesBase@@QAE@ABV0@@Z
 ??0WPropertiesBase@@QAE@VFName@@PAVWWindow@@@Z
 ??0WPropertiesBase@@QAE@XZ
 ??0WTerminal@@QAE@ABV0@@Z
 ??0WTerminal@@QAE@VFName@@PAVWWindow@@@Z
 ??0WTerminal@@QAE@XZ
 ??0WTerminalBase@@QAE@ABV0@@Z
 ??0WTerminalBase@@QAE@VFName@@PAVWWindow@@@Z
 ??0WTerminalBase@@QAE@XZ
 ??0WTextScrollerDialog@@QAE@ABV0@@Z
 ??0WTextScrollerDialog@@QAE@PBD0@Z
 ??0WTextScrollerDialog@@QAE@XZ
 ??0WTrackBar@@QAE@ABV0@@Z
 ??0WTrackBar@@QAE@PAVWWindow@@HP6GJPAUHWND__@@IIJ@Z@Z
 ??0WTrackBar@@QAE@XZ
 ??0WUrlButton@@QAE@ABV0@@Z
 ??0WUrlButton@@QAE@PAVWWindow@@PBDH@Z
 ??0WUrlButton@@QAE@XZ
 ??0WWindow@@QAE@ABV0@@Z
 ??0WWindow@@QAE@VFName@@PAV0@@Z
 ??0WWizardDialog@@QAE@ABV0@@Z
 ??0WWizardDialog@@QAE@XZ
 ??0WWizardPage@@QAE@ABV0@@Z
 ??0WWizardPage@@QAE@PBDHPAVWWizardDialog@@@Z
 ??0WWizardPage@@QAE@XZ
 ??1FCategoryItem@@UAE@XZ
 ??1FClassItem@@UAE@XZ
 ??1FConfigItem@@UAE@XZ
 ??1FHeaderItem@@UAE@XZ
 ??1FObjectConfigItem@@UAE@XZ
 ??1FObjectsItem@@UAE@XZ
 ??1FPropertyItem@@UAE@XZ
 ??1FPropertyItemBase@@UAE@XZ
 ??1FTreeItem@@UAE@XZ
 ??1WButton@@UAE@XZ
 ??1WClassProperties@@UAE@XZ
 ??1WComboBox@@UAE@XZ
 ??1WConfigProperties@@UAE@XZ
 ??1WControl@@UAE@XZ
 ??1WCoolButton@@UAE@XZ
 ??1WDialog@@UAE@XZ
 ??1WDragInterceptor@@UAE@XZ
 ??1WEdit@@UAE@XZ
 ??1WEditTerminal@@UAE@XZ
 ??1WItemBox@@UAE@XZ
 ??1WLabel@@UAE@XZ
 ??1WListBox@@UAE@XZ
 ??1WLog@@UAE@XZ
 ??1WObjectProperties@@UAE@XZ
 ??1WPasswordDialog@@UAE@XZ
 ??1WProgressBar@@UAE@XZ
 ??1WProperties@@UAE@XZ
 ??1WPropertiesBase@@UAE@XZ
 ??1WTerminal@@UAE@XZ
 ??1WTerminalBase@@UAE@XZ
 ??1WTextScrollerDialog@@UAE@XZ
 ??1WTrackBar@@UAE@XZ
 ??1WUrlButton@@UAE@XZ
 ??1WWindow@@UAE@XZ
 ??1WWizardDialog@@UAE@XZ
 ??1WWizardPage@@UAE@XZ
 ??4FCategoryItem@@QAEAAV0@ABV0@@Z
 ??4FClassItem@@QAEAAV0@ABV0@@Z
 ??4FCommandTarget@@QAEAAV0@ABV0@@Z
 ??4FConfigItem@@QAEAAV0@ABV0@@Z
 ??4FControlSnoop@@QAEAAV0@ABV0@@Z
 ??4FDelegate@@QAEAAU0@ABU0@@Z
 ??4FDelegateInt@@QAEAAU0@ABU0@@Z
 ??4FHeaderItem@@QAEAAV0@ABV0@@Z
 ??4FObjectConfigItem@@QAEAAV0@ABV0@@Z
 ??4FObjectsItem@@QAEAAV0@ABV0@@Z
 ??4FPropertyItem@@QAEAAV0@ABV0@@Z
 ??4FPropertyItemBase@@QAEAAV0@ABV0@@Z
 ??4FTreeItem@@QAEAAV0@ABV0@@Z
 ??4FTreeItemBase@@QAEAAV0@ABV0@@Z
 ??4WButton@@QAEAAV0@ABV0@@Z
 ??4WClassProperties@@QAEAAV0@ABV0@@Z
 ??4WComboBox@@QAEAAV0@ABV0@@Z
 ??4WConfigProperties@@QAEAAV0@ABV0@@Z
 ??4WControl@@QAEAAV0@ABV0@@Z
 ??4WCoolButton@@QAEAAV0@ABV0@@Z
 ??4WDialog@@QAEAAV0@ABV0@@Z
 ??4WDragInterceptor@@QAEAAV0@ABV0@@Z
 ??4WEdit@@QAEAAV0@ABV0@@Z
 ??4WEditTerminal@@QAEAAV0@ABV0@@Z
 ??4WItemBox@@QAEAAV0@ABV0@@Z
 ??4WLabel@@QAEAAV0@ABV0@@Z
 ??4WListBox@@QAEAAV0@ABV0@@Z
 ??4WObjectProperties@@QAEAAV0@ABV0@@Z
 ??4WPasswordDialog@@QAEAAV0@ABV0@@Z
 ??4WProgressBar@@QAEAAV0@ABV0@@Z
 ??4WProperties@@QAEAAV0@ABV0@@Z
 ??4WPropertiesBase@@QAEAAV0@ABV0@@Z
 ??4WTerminal@@QAEAAV0@ABV0@@Z
 ??4WTerminalBase@@QAEAAV0@ABV0@@Z
 ??4WTextScrollerDialog@@QAEAAV0@ABV0@@Z
 ??4WTrackBar@@QAEAAV0@ABV0@@Z
 ??4WUrlButton@@QAEAAV0@ABV0@@Z
 ??4WWindow@@QAEAAV0@ABV0@@Z
 ??4WWizardDialog@@QAEAAV0@ABV0@@Z
 ??4WWizardPage@@QAEAAV0@ABV0@@Z
 ??BWWindow@@QBEPAUHWND__@@XZ
 ??RFDelegate@@UAEXXZ
 ??RFDelegateInt@@UAEXH@Z
 ??_7FCategoryItem@@6BFCommandTarget@@@
 ??_7FCategoryItem@@6BFControlSnoop@@@
 ??_7FClassItem@@6BFCommandTarget@@@
 ??_7FClassItem@@6BFControlSnoop@@@
 ??_7FCommandTarget@@6B@
 ??_7FConfigItem@@6BFCommandTarget@@@
 ??_7FConfigItem@@6BFControlSnoop@@@
 ??_7FControlSnoop@@6B@
 ??_7FDelegate@@6B@
 ??_7FDelegateInt@@6B@
 ??_7FHeaderItem@@6BFCommandTarget@@@
 ??_7FHeaderItem@@6BFControlSnoop@@@
 ??_7FObjectConfigItem@@6BFCommandTarget@@@
 ??_7FObjectConfigItem@@6BFControlSnoop@@@
 ??_7FObjectsItem@@6BFCommandTarget@@@
 ??_7FObjectsItem@@6BFControlSnoop@@@
 ??_7FPropertyItem@@6BFCommandTarget@@@
 ??_7FPropertyItem@@6BFControlSnoop@@@
 ??_7FPropertyItemBase@@6BFCommandTarget@@@
 ??_7FPropertyItemBase@@6BFControlSnoop@@@
 ??_7FTreeItem@@6BFCommandTarget@@@
 ??_7FTreeItem@@6BFControlSnoop@@@
 ??_7FTreeItemBase@@6BFCommandTarget@@@
 ??_7FTreeItemBase@@6BFControlSnoop@@@
 ??_7WButton@@6B@
 ??_7WClassProperties@@6BFControlSnoop@@@
 ??_7WClassProperties@@6BWWindow@@@
 ??_7WComboBox@@6B@
 ??_7WConfigProperties@@6BFControlSnoop@@@
 ??_7WConfigProperties@@6BWWindow@@@
 ??_7WControl@@6B@
 ??_7WCoolButton@@6B@
 ??_7WDialog@@6B@
 ??_7WDragInterceptor@@6B@
 ??_7WEdit@@6B@
 ??_7WEditTerminal@@6B@
 ??_7WItemBox@@6B@
 ??_7WLabel@@6B@
 ??_7WListBox@@6B@
 ??_7WLog@@6BFOutputDevice@@@
 ??_7WLog@@6BWTerminalBase@@@
 ??_7WObjectProperties@@6BFControlSnoop@@@
 ??_7WObjectProperties@@6BWWindow@@@
 ??_7WPasswordDialog@@6B@
 ??_7WProgressBar@@6B@
 ??_7WProperties@@6BFControlSnoop@@@
 ??_7WProperties@@6BWWindow@@@
 ??_7WPropertiesBase@@6BFControlSnoop@@@
 ??_7WPropertiesBase@@6BWWindow@@@
 ??_7WTerminal@@6BFOutputDevice@@@
 ??_7WTerminal@@6BWTerminalBase@@@
 ??_7WTerminalBase@@6B@
 ??_7WTextScrollerDialog@@6B@
 ??_7WTrackBar@@6B@
 ??_7WUrlButton@@6B@
 ??_7WWindow@@6B@
 ??_7WWizardDialog@@6B@
 ??_7WWizardPage@@6B@
 ??_C@_01FAFK@?$DO?$AA@
 ??_C@_01PJCK@?4?$AA@
 ??_C@_02HFBK@?3?5?$AA@
 ??_C@_02JAFN@?$CFi?$AA@
 ??_C@_02MMBB@Y?$DN?$AA@
 ??_C@_02NKLL@X?$DN?$AA@
 ??_C@_02PIMC@?$AN?6?$AA@
 ??_C@_03ECKC@?$AN?6?$DO?$AA@
 ??_C@_03IMNL@YL?$DN?$AA@
 ??_C@_03NAME@?4?4?4?$AA@
 ??_C@_03NOMN@XL?$DN?$AA@
 ??_C@_04BNDI@Core?$AA@
 ??_C@_04CONG@hWnd?$AA@
 ??_C@_04JIJB@?$FL?$CFi?$FN?$AA@
 ??_C@_04KAA@IDC_?$AA@
 ??_C@_04KHOB@open?$AA@
 ??_C@_04KJFB@Exec?$AA@
 ??_C@_04KPGM@WLog?$AA@
 ??_C@_04OGNC@IDOK?$AA@
 ??_C@_05CIEE@WEdit?$AA@
 ??_C@_05HIMK@Color?$AA@
 ??_C@_05IKFJ@?$CBhWnd?$AA@
 ??_C@_05PBON@Open?5?$AA@
 ??_C@_06BDNI@?4Split?$AA@
 ??_C@_06FCEH@Window?$AA@
 ??_C@_06GIEJ@Result?$AA@
 ??_C@_06NAHE@WLabel?$AA@
 ??_C@_07COFL@Drivers?$AA@
 ??_C@_07DLEA@NewPage?$AA@
 ??_C@_07IODA@NoRoute?$AA@
 ??_C@_07IOHF@WButton?$AA@
 ??_C@_07KKIB@Product?$AA@
 ??_C@_07NBHH@PassDlg?$AA@
 ??_C@_08DFDG@Language?$AA@
 ??_C@_08JHMA@WItemBox?$AA@
 ??_C@_08KPEJ@WListBox?$AA@
 ??_C@_08MJHI@OkButton?$AA@
 ??_C@_08NLA@IDCANCEL?$AA@
 ??_C@_08NOMD@PropNone?$AA@
 ??_C@_09BANC@BaseClass?$AA@
 ??_C@_09BIJC@WTerminal?$AA@
 ??_C@_09IMIF@PropMulti?$AA@
 ??_C@_09LBNG@WComboBox?$AA@
 ??_C@_09LIID@TakeFocus?$AA@
 ??_C@_09LIKL@AddButton?$AA@
 ??_C@_09MBLM@UseButton?$AA@
 ??_C@_09MPBD@WTrackBar?$AA@
 ??_C@_09NCND@LogWindow?$AA@
 ??_C@_0BA@GAJG@WPasswordDialog?$AA@
 ??_C@_0BA@MENE@WM_COPYDATA?3?5?$CFs?$AA@
 ??_C@_0BA@PCNL@WindowPositions?$AA@
 ??_C@_0BA@PPA@?4?4?2Inc?2Window?4h?$AA@
 ??_C@_0BB@GDHA@WDragInterceptor?$AA@
 ??_C@_0BB@INLF@i?$DM_Windows?4Num?$CI?$CJ?$AA@
 ??_C@_0BB@KONK@?$CIR?$DN?$CFi?0G?$DN?$CFi?0B?$DN?$CFi?$CJ?$AA@
 ??_C@_0BB@LBGO@WClassProperties?$AA@
 ??_C@_0BB@LFAB@UnrealNidMessage?$AA@
 ??_C@_0BB@PNPG@FailedConfigLoad?$AA@
 ??_C@_0BC@FCGG@IDMENU_NotifyIcon?$AA@
 ??_C@_0BC@HJAH@WConfigProperties?$AA@
 ??_C@_0BC@HMCF@WObjectProperties?$AA@
 ??_C@_0BC@IHM@FObjectConfigItem?$AA@
 ??_C@_0BC@NGNE@hWndCreated?$DN?$DNhWnd?$AA@
 ??_C@_0BD@HAFE@WLog?3?3OnCommand?5?$CFs?$AA@
 ??_C@_0BD@KNBL@TextScrollerDialog?$AA@
 ??_C@_0BD@PHIM@Prev?9?$DOParent?$DN?$DNNULL?$AA@
 ??_C@_0BE@DDFA@WTextScrollerDialog?$AA@
 ??_C@_0BE@OPAD@?$CBWindowCreate?9?$DOhWnd?$AA@
 ??_C@_0BE@PHHF@USECURRENT?5CLASS?$DN?$CFs?$AA@
 ??_C@_0BF@DFGL@BROWSECLASS?5CLASS?$DN?$CFs?$AA@
 ??_C@_0BH@IGFH@Cls?4lpszMenuName?$DN?$DNNULL?$AA@
 ??_C@_0BI@IFOL@?$CIX?$DN?$CFi?0Y?$DN?$CFi?0XL?$DN?$CFi?0YL?$DN?$CFi?$CJ?$AA@
 ??_C@_0BJ@GEDC@InObjects?$FLi?$FN?9?$DOGetClass?$CI?$CJ?$AA@
 ??_C@_0BJ@PNJP@RegisterClassExA?$CI?5?$CGCls?5?$CJ?$AA@
 ??_C@_0BK@IHDJ@CreateWindowEx?5failed?3?5?$CFs?$AA@
 ??_C@_0BL@NJPG@Failed?5loading?5menu?3?5?$CFs?5?$CFs?$AA@
 ??_C@_0DL@BHFK@GetClassInfoExA?$CI?5NULL?0?5TCHAR_TO_@
 ??_C@_0L@BLJO@hWnd?$DN?$DNNULL?$AA@
 ??_C@_0L@FDPC@PassPrompt?$AA@
 ??_C@_0L@FHCH@hWndParent?$AA@
 ??_C@_0L@FLDE@BackButton?$AA@
 ??_C@_0L@FMPO@NextButton?$AA@
 ??_C@_0L@GLLL@PropSingle?$AA@
 ??_C@_0L@HAFD@WUrlButton?$AA@
 ??_C@_0M@CCDL@hWndCreated?$AA@
 ??_C@_0M@CHCL@IDDIALOG_?$CFs?$AA@
 ??_C@_0M@DJOF@WProperties?$AA@
 ??_C@_0M@DMNP@PREFERENCES?$AA@
 ??_C@_0M@ELJN@ClearButton?$AA@
 ??_C@_0M@GPAD@WWizardPage?$AA@
 ??_C@_0M@HNIC@WCoolButton?$AA@
 ??_C@_0M@IKGH@OwnerWindow?$AA@
 ??_C@_0M@LJPC@FConfigItem?$AA@
 ??_C@_0M@LJPL@EmptyButton?$AA@
 ??_C@_0N@GCID@DeleteButton?$AA@
 ??_C@_0N@HHAK@WindowCreate?$AA@
 ??_C@_0N@IBBA@WProgressBar?$AA@
 ??_C@_0N@IPDB@Prev?9?$DOParent?$AA@
 ??_C@_0N@MLOC@CancelButton?$AA@
 ??_C@_0N@OGCI@InsertButton?$AA@
 ??_C@_0N@OLEP@WizardDialog?$AA@
 ??_C@_0N@PGML@ClassCaption?$AA@
 ??_C@_0N@PLDC@BrowseButton?$AA@
 ??_C@_0N@POBP@?$CBEditControl?$AA@
 ??_C@_0O@BAOK@WWizardDialog?$AA@
 ??_C@_0O@DADA@?$CBTrackControl?$AA@
 ??_C@_0O@FFFH@Control?9?$DOhWnd?$AA@
 ??_C@_0O@JKIF@ID_NotifyExit?$AA@
 ??_C@_0O@MHCP@WTerminalBase?$AA@
 ??_C@_0O@OJPN@FCategoryItem?$AA@
 ??_C@_0O@ONDF@WEditTerminal?$AA@
 ??_C@_0O@PDF@FPropertyItem?$AA@
 ??_C@_0P@FEBJ@ID_LogFileExit?$AA@
 ??_C@_0P@IKOB@DefaultsButton?$AA@
 ??_C@_0P@IPPO@Result?$CB?$DNLB_ERR?$AA@
 ??_C@_0P@KPOG@PasswordDialog?$AA@
 ??_C@_0P@PPCL@?$CBControl?9?$DOhWnd?$AA@
 ??_FFDelegate@@QAEXXZ
 ??_FFDelegateInt@@QAEXXZ
 ??_FWEditTerminal@@QAEXXZ
 ??_FWWindow@@QAEXXZ
 ?AcceptFlags@FPropertyItemBase@@UAEHK@Z
 ?AcceptFlags@FTreeItem@@UAEHK@Z
 ?AddButton@FTreeItem@@UAEXPBDUFDelegate@@@Z
 ?AddItem@WListBox@@QAEHPBX@Z
 ?AddString@WComboBox@@UAEXPBD@Z
 ?AddString@WListBox@@QAEHPBD@Z
 ?Advance@FPropertyItem@@UAEXXZ
 ?Advance@WWizardDialog@@UAEXPAVWWizardPage@@@Z
 ?AppActive@?BG@??WndProc@WWindow@@UAEJIIJ@Z@4HA
 ?BeginSplitterDrag@WProperties@@UAEXXZ
 ?CallDefaultProc@WControl@@UAEHIIJ@Z
 ?CallDefaultProc@WDialog@@UAEHIIJ@Z
 ?CallDefaultProc@WWindow@@UAEHIIJ@Z
 ?ClientToScreen@WWindow@@QAE?AUFPoint@@ABU2@@Z
 ?ClientToScreen@WWindow@@QAE?AUFRect@@ABU2@@Z
 ?Collapse@FCategoryItem@@UAEXXZ
 ?Collapse@FConfigItem@@UAEXXZ
 ?Collapse@FPropertyItem@@UAEXXZ
 ?Collapse@FPropertyItemBase@@UAEXXZ
 ?Collapse@FTreeItem@@UAEXXZ
 ?ComboSelectionEndCancel@FPropertyItem@@QAEXXZ
 ?ComboSelectionEndOk@FPropertyItem@@QAEXXZ
 ?DeleteString@WListBox@@QAEXH@Z
 ?DoDestroy@WProperties@@UAEXXZ
 ?DoDestroy@WWindow@@UAEXXZ
 ?DoModal@WDialog@@UAEHPAUHINSTANCE__@@@Z
 ?Draw@FHeaderItem@@UAEXPAUHDC__@@@Z
 ?Draw@FPropertyItem@@UAEXPAUHDC__@@@Z
 ?DrawTreeLines@FTreeItem@@UAEXPAUHDC__@@UFRect@@@Z
 ?Empty@WListBox@@QAEXXZ
 ?EmptyChildren@FTreeItem@@QAEXXZ
 ?EndDialog@WDialog@@QAEXH@Z
 ?EndDialogFalse@WDialog@@QAEXXZ
 ?EndDialogTrue@WDialog@@QAEXXZ
 ?Expand@FCategoryItem@@UAEXXZ
 ?Expand@FClassItem@@UAEXXZ
 ?Expand@FConfigItem@@UAEXXZ
 ?Expand@FObjectConfigItem@@UAEXXZ
 ?Expand@FObjectsItem@@UAEXXZ
 ?Expand@FPropertyItem@@UAEXXZ
 ?Expand@FTreeItem@@UAEXXZ
 ?FindItem@WListBox@@QAEHPBX@Z
 ?FindItemChecked@WListBox@@QAEHPBX@Z
 ?FindString@WComboBox@@UAEHPBD@Z
 ?FindString@WListBox@@QAEHPBD@Z
 ?FindStringChecked@WListBox@@QAEHPBD@Z
 ?ForceRefresh@WProperties@@UAEXXZ
 ?GLogWindow@@3PAVWLog@@A
 ?GNotify@@3HA
 ?GetAddress@FObjectsItem@@QAEPAEPAVUProperty@@PAEH@Z
 ?GetBackText@WWizardPage@@UAEPBDXZ
 ?GetBackgroundBrush@FTreeItem@@UAEPAUHBRUSH__@@H@Z
 ?GetCancelText@WWizardPage@@UAEPBDXZ
 ?GetCaption@FCategoryItem@@UBE?AVFString@@XZ
 ?GetCaption@FConfigItem@@UBE?AVFString@@XZ
 ?GetCaption@FObjectsItem@@UBE?AVFString@@XZ
 ?GetCaption@FPropertyItem@@UBE?AVFString@@XZ
 ?GetCaption@FPropertyItemBase@@UBE?AVFString@@XZ
 ?GetClientRect@WWindow@@QBE?AUFRect@@XZ
 ?GetCount@WComboBox@@UAEHXZ
 ?GetCount@WListBox@@QAEHXZ
 ?GetCurrent@WComboBox@@UAEHXZ
 ?GetCurrent@WListBox@@QAEHXZ
 ?GetCursorPos@WWindow@@QAE?AUFPoint@@XZ
 ?GetDividerWidth@WProperties@@UAEHXZ
 ?GetExpanderRect@FTreeItem@@UAE?AUFRect@@XZ
 ?GetFinishText@WWizardPage@@UAEPBDXZ
 ?GetHeight@FHeaderItem@@UAEHXZ
 ?GetHeight@FPropertyItem@@UAEHXZ
 ?GetId@FCategoryItem@@UBE_KXZ
 ?GetId@FConfigItem@@UBE_KXZ
 ?GetId@FPropertyItem@@UBE_KXZ
 ?GetId@FPropertyItemBase@@UBE_KXZ
 ?GetIndent@FTreeItem@@QAEHXZ
 ?GetIndentPixels@FTreeItem@@UAEHH@Z
 ?GetItemData@WListBox@@QAEPAXH@Z
 ?GetItemHeight@WListBox@@QAEHH@Z
 ?GetItemRect@WListBox@@QAE?AUFRect@@H@Z
 ?GetLength@WWindow@@UAEHXZ
 ?GetLineCount@WEdit@@QAEHXZ
 ?GetLineIndex@WEdit@@QAEHH@Z
 ?GetListItem@WPropertiesBase@@UAEPAVFTreeItem@@H@Z
 ?GetModify@WEdit@@QAEHXZ
 ?GetNext@WWizardPage@@UAEPAV1@XZ
 ?GetNextText@WWizardPage@@UAEPBDXZ
 ?GetPackageName@WButton@@UAEPBDXZ
 ?GetPackageName@WClassProperties@@UAEPBDXZ
 ?GetPackageName@WComboBox@@UAEPBDXZ
 ?GetPackageName@WConfigProperties@@UAEPBDXZ
 ?GetPackageName@WCoolButton@@UAEPBDXZ
 ?GetPackageName@WDragInterceptor@@UAEPBDXZ
 ?GetPackageName@WEdit@@UAEPBDXZ
 ?GetPackageName@WEditTerminal@@UAEPBDXZ
 ?GetPackageName@WItemBox@@UAEPBDXZ
 ?GetPackageName@WLabel@@UAEPBDXZ
 ?GetPackageName@WListBox@@UAEPBDXZ
 ?GetPackageName@WLog@@UAEPBDXZ
 ?GetPackageName@WObjectProperties@@UAEPBDXZ
 ?GetPackageName@WPasswordDialog@@UAEPBDXZ
 ?GetPackageName@WProgressBar@@UAEPBDXZ
 ?GetPackageName@WProperties@@UAEPBDXZ
 ?GetPackageName@WTerminal@@UAEPBDXZ
 ?GetPackageName@WTerminalBase@@UAEPBDXZ
 ?GetPackageName@WTextScrollerDialog@@UAEPBDXZ
 ?GetPackageName@WTrackBar@@UAEPBDXZ
 ?GetPackageName@WUrlButton@@UAEPBDXZ
 ?GetPackageName@WWindow@@UAEPBDXZ
 ?GetPackageName@WWizardDialog@@UAEPBDXZ
 ?GetPackageName@WWizardPage@@UAEPBDXZ
 ?GetPos@WTrackBar@@QAEHXZ
 ?GetPropertyText@FPropertyItem@@QAEXPADPAE@Z
 ?GetReadAddress@FClassItem@@UAEPAEPAVUProperty@@H@Z
 ?GetReadAddress@FObjectConfigItem@@UAEPAEPAVUProperty@@H@Z
 ?GetReadAddress@FObjectsItem@@UAEPAEPAVUProperty@@H@Z
 ?GetReadAddress@FTreeItem@@UAEPAEPAVUProperty@@H@Z
 ?GetReadOnly@WEdit@@QAEHXZ
 ?GetRect@FTreeItem@@UAE?AUFRect@@XZ
 ?GetRoot@WClassProperties@@UAEPAVFTreeItem@@XZ
 ?GetRoot@WConfigProperties@@UAEPAVFTreeItem@@XZ
 ?GetRoot@WObjectProperties@@UAEPAVFTreeItem@@XZ
 ?GetSelected@FTreeItem@@UAEHXZ
 ?GetSelected@WListBox@@QAEHH@Z
 ?GetSelection@WEdit@@QAEXAAH0@Z
 ?GetShow@WWizardPage@@UAEHXZ
 ?GetStates@FPropertyItemBase@@UAEXAAV?$TArray@VFName@@@@@Z
 ?GetStates@FTreeItem@@UAEXAAV?$TArray@VFName@@@@@Z
 ?GetString@WComboBox@@UAE?AVFString@@H@Z
 ?GetString@WListBox@@QAE?AVFString@@H@Z
 ?GetText@WWindow@@UAE?AVFString@@XZ
 ?GetTextColor@FTreeItem@@UAEKH@Z
 ?GetTop@WListBox@@QAEHXZ
 ?GetUnitIndentPixels@FTreeItem@@QAEHXZ
 ?GetWindowClassName@WButton@@UAEXPAD@Z
 ?GetWindowClassName@WClassProperties@@UAEXPAD@Z
 ?GetWindowClassName@WComboBox@@UAEXPAD@Z
 ?GetWindowClassName@WConfigProperties@@UAEXPAD@Z
 ?GetWindowClassName@WCoolButton@@UAEXPAD@Z
 ?GetWindowClassName@WDragInterceptor@@UAEXPAD@Z
 ?GetWindowClassName@WEdit@@UAEXPAD@Z
 ?GetWindowClassName@WEditTerminal@@UAEXPAD@Z
 ?GetWindowClassName@WItemBox@@UAEXPAD@Z
 ?GetWindowClassName@WLabel@@UAEXPAD@Z
 ?GetWindowClassName@WListBox@@UAEXPAD@Z
 ?GetWindowClassName@WLog@@UAEXPAD@Z
 ?GetWindowClassName@WObjectProperties@@UAEXPAD@Z
 ?GetWindowClassName@WPasswordDialog@@UAEXPAD@Z
 ?GetWindowClassName@WProgressBar@@UAEXPAD@Z
 ?GetWindowClassName@WProperties@@UAEXPAD@Z
 ?GetWindowClassName@WTerminal@@UAEXPAD@Z
 ?GetWindowClassName@WTerminalBase@@UAEXPAD@Z
 ?GetWindowClassName@WTextScrollerDialog@@UAEXPAD@Z
 ?GetWindowClassName@WTrackBar@@UAEXPAD@Z
 ?GetWindowClassName@WUrlButton@@UAEXPAD@Z
 ?GetWindowClassName@WWizardDialog@@UAEXPAD@Z
 ?GetWindowClassName@WWizardPage@@UAEXPAD@Z
 ?GetWindowRect@WWindow@@QBE?AUFRect@@XZ
 ?GlobalCoolButton@WCoolButton@@2PAV1@A
 ?InitWindowing@@YAXXZ
 ?InsertItem@WListBox@@QAEXHPBX@Z
 ?InsertItemAfter@WListBox@@QAEXPBX0@Z
 ?InsertString@WListBox@@QAEXHPBD@Z
 ?InsertStringAfter@WListBox@@QAEXPBD0@Z
 ?InterceptControlCommand@WButton@@UAEHIIJ@Z
 ?InterceptControlCommand@WComboBox@@UAEHIIJ@Z
 ?InterceptControlCommand@WEdit@@UAEHIIJ@Z
 ?InterceptControlCommand@WListBox@@UAEHIIJ@Z
 ?InterceptControlCommand@WTrackBar@@UAEHIIJ@Z
 ?InterceptControlCommand@WWindow@@UAEHIIJ@Z
 ?ItemFromPoint@WListBox@@QAEHUFPoint@@@Z
 ?LazyLoadClass@FObjectConfigItem@@QAEXXZ
 ?LoadFileToBitmap@@YAPAUHBITMAP__@@PBDAAH1@Z
 ?LoadLocalizedMenu@@YAPAUHMENU__@@PAUHINSTANCE__@@HPBD1@Z
 ?LocalizeText@WDialog@@UAEXPBD0@Z
 ?LocalizeTextEnumProc@WDialog@@SGHPAUHWND__@@J@Z
 ?MaybeDestroy@WWindow@@QAEXXZ
 ?ModalCount@WWindow@@2HA
 ?MoveWindow@WWindow@@QAEXUFRect@@H@Z
 ?NID@@3U_NOTIFYICONDATAA@@A
 ?OnActivate@WProperties@@UAEXH@Z
 ?OnActivate@WWindow@@UAEXH@Z
 ?OnArrayAdd@FPropertyItem@@QAEXXZ
 ?OnArrayDelete@FPropertyItem@@QAEXXZ
 ?OnArrayEmpty@FPropertyItem@@QAEXXZ
 ?OnArrayInsert@FPropertyItem@@QAEXXZ
 ?OnBack@WWizardDialog@@UAEXXZ
 ?OnBrowseButton@FPropertyItem@@QAEXXZ
 ?OnCancel@WWizardDialog@@UAEXXZ
 ?OnCancel@WWizardPage@@UAEXXZ
 ?OnChar@WEditTerminal@@UAEXD@Z
 ?OnChar@WWindow@@UAEXD@Z
 ?OnChooseColorButton@FPropertyItem@@QAEXXZ
 ?OnClearButton@FPropertyItem@@QAEXXZ
 ?OnClick@WUrlButton@@QAEXXZ
 ?OnClose@WLog@@UAEXXZ
 ?OnClose@WWindow@@UAEXXZ
 ?OnClose@WWizardDialog@@UAEXXZ
 ?OnCommand@WLog@@UAEXH@Z
 ?OnCommand@WWindow@@UAEXH@Z
 ?OnCopy@WWindow@@UAEXXZ
 ?OnCopyData@WLog@@UAEXPAUHWND__@@PAUtagCOPYDATASTRUCT@@@Z
 ?OnCopyData@WWindow@@UAEXPAUHWND__@@PAUtagCOPYDATASTRUCT@@@Z
 ?OnCreate@WCoolButton@@UAEXXZ
 ?OnCreate@WTerminal@@UAEXXZ
 ?OnCreate@WWindow@@UAEXXZ
 ?OnCurrent@WWizardPage@@UAEXXZ
 ?OnCut@WWindow@@UAEXXZ
 ?OnDestroy@WCoolButton@@UAEXXZ
 ?OnDestroy@WLog@@UAEXXZ
 ?OnDestroy@WPasswordDialog@@UAEXXZ
 ?OnDestroy@WProperties@@UAEXXZ
 ?OnDestroy@WWindow@@UAEXXZ
 ?OnDestroy@WWizardDialog@@UAEXXZ
 ?OnDrawItem@WCoolButton@@UAEXPAUtagDRAWITEMSTRUCT@@@Z
 ?OnDrawItem@WItemBox@@UAEXPAUtagDRAWITEMSTRUCT@@@Z
 ?OnDrawItem@WWindow@@UAEXPAUtagDRAWITEMSTRUCT@@@Z
 ?OnEnterIdle@WWindow@@UAEXXZ
 ?OnFinish@WWizardDialog@@UAEXXZ
 ?OnFinishSplitterDrag@WProperties@@UAEXPAVWDragInterceptor@@H@Z
 ?OnFinishSplitterDrag@WWindow@@UAEXPAVWDragInterceptor@@H@Z
 ?OnInitDialog@WDialog@@UAEXXZ
 ?OnInitDialog@WPasswordDialog@@UAEXXZ
 ?OnInitDialog@WTextScrollerDialog@@UAEXXZ
 ?OnInitDialog@WWindow@@UAEXXZ
 ?OnInitDialog@WWizardDialog@@UAEXXZ
 ?OnItemDoubleClick@FPropertyItem@@UAEXXZ
 ?OnItemDoubleClick@FTreeItem@@UAEXXZ
 ?OnItemHelp@FTreeItem@@UAEXXZ
 ?OnItemKillFocus@FPropertyItem@@UAEXH@Z
 ?OnItemKillFocus@FTreeItem@@UAEXH@Z
 ?OnItemLeftMouseDown@FPropertyItem@@UAEXUFPoint@@@Z
 ?OnItemLeftMouseDown@FTreeItem@@UAEXUFPoint@@@Z
 ?OnItemRightMouseDown@FTreeItem@@UAEXUFPoint@@@Z
 ?OnItemSetFocus@FObjectConfigItem@@UAEXXZ
 ?OnItemSetFocus@FPropertyItem@@UAEXXZ
 ?OnItemSetFocus@FTreeItem@@UAEXXZ
 ?OnKeyDown@WDragInterceptor@@UAEXD@Z
 ?OnKeyDown@WWindow@@UAEXD@Z
 ?OnKillFocus@WWindow@@UAEXPAUHWND__@@@Z
 ?OnLeftButtonDown@WWindow@@UAEXXZ
 ?OnLeftButtonUp@WDragInterceptor@@UAEXXZ
 ?OnLeftButtonUp@WWindow@@UAEXXZ
 ?OnListDoubleClick@WProperties@@QAEXXZ
 ?OnListSelectionChange@WProperties@@QAEXXZ
 ?OnMdiActivate@WWindow@@UAEXH@Z
 ?OnMeasureItem@WItemBox@@UAEXPAUtagMEASUREITEMSTRUCT@@@Z
 ?OnMeasureItem@WWindow@@UAEXPAUtagMEASUREITEMSTRUCT@@@Z
 ?OnMouseEnter@WWindow@@UAEXXZ
 ?OnMouseHover@WWindow@@UAEXXZ
 ?OnMouseLeave@WWindow@@UAEXXZ
 ?OnMouseMove@WDragInterceptor@@UAEXKUFPoint@@@Z
 ?OnMouseMove@WWindow@@UAEXKUFPoint@@@Z
 ?OnNext@WWizardDialog@@UAEXXZ
 ?OnPaint@WProperties@@UAEXXZ
 ?OnPaint@WWindow@@UAEXXZ
 ?OnPaste@WEditTerminal@@UAEXXZ
 ?OnPaste@WWindow@@UAEXXZ
 ?OnReleaseCapture@WDragInterceptor@@UAEXXZ
 ?OnReleaseCapture@WWindow@@UAEXXZ
 ?OnResetToDefaultsButton@FObjectConfigItem@@QAEXXZ
 ?OnRightButtonDown@WEditTerminal@@UAEXXZ
 ?OnRightButtonDown@WWindow@@UAEXXZ
 ?OnRightButtonUp@WWindow@@UAEXXZ
 ?OnSetCursor@FPropertyItem@@UAEHXZ
 ?OnSetCursor@FTreeItem@@UAEHXZ
 ?OnSetCursor@WCoolButton@@UAEHXZ
 ?OnSetCursor@WProperties@@UAEHXZ
 ?OnSetCursor@WWindow@@UAEHXZ
 ?OnSetFocus@WTerminal@@UAEXPAUHWND__@@@Z
 ?OnSetFocus@WWindow@@UAEXPAUHWND__@@@Z
 ?OnShowWindow@WLog@@UAEXH@Z
 ?OnShowWindow@WTerminal@@UAEXH@Z
 ?OnShowWindow@WWindow@@UAEXH@Z
 ?OnSize@WProperties@@UAEXKHH@Z
 ?OnSize@WTerminal@@UAEXKHH@Z
 ?OnSize@WWindow@@UAEXKHH@Z
 ?OnTimer@WCoolButton@@UAEXXZ
 ?OnTimer@WWindow@@UAEXXZ
 ?OnTrackBarThumbPosition@FPropertyItem@@QAEXXZ
 ?OnTrackBarThumbTrack@FPropertyItem@@QAEXXZ
 ?OnUndo@WEditTerminal@@UAEXXZ
 ?OnUndo@WWindow@@UAEXXZ
 ?OnUseCurrentButton@FPropertyItem@@QAEXXZ
 ?OpenChildWindow@WDialog@@QAEXHH@Z
 ?OpenChildWindow@WProperties@@QAEXH@Z
 ?OpenWindow@WButton@@QAEXHHHHHPBD@Z
 ?OpenWindow@WComboBox@@QAEXH@Z
 ?OpenWindow@WCoolButton@@QAEXHHHHHPBD@Z
 ?OpenWindow@WDragInterceptor@@UAEXXZ
 ?OpenWindow@WEdit@@QAEXHHH@Z
 ?OpenWindow@WLabel@@QAEXH@Z
 ?OpenWindow@WListBox@@QAEXHHHH@Z
 ?OpenWindow@WLog@@QAEXHH@Z
 ?OpenWindow@WProgressBar@@QAEXH@Z
 ?OpenWindow@WProperties@@QAEXPAUHWND__@@@Z
 ?OpenWindow@WTerminal@@QAEXHH@Z
 ?OpenWindow@WTrackBar@@QAEXH@Z
 ?Paste@WTerminal@@UAEXXZ
 ?PerformCreateWindowEx@WWindow@@QAEXKPBDKHHHHPAUHWND__@@PAUHMENU__@@PAUHINSTANCE__@@@Z
 ?PropertiesWindows@WProperties@@2V?$TArray@PAVWProperties@@@@A
 ?ReceiveFromControl@FPropertyItem@@UAEXXZ
 ?Redraw@FTreeItem@@UAEXXZ
 ?RefreshPage@WWizardDialog@@UAEXXZ
 ?RegisterWindowClass@WControl@@SAP6GJPAUHWND__@@IIJ@ZPBD1@Z
 ?RegisterWindowClass@WWindow@@SAP6GJPAUHWND__@@IIJ@ZPBDK@Z
 ?ResizeList@WProperties@@UAEXXZ
 ?SaveWindowPos@WWindow@@QAEXXZ
 ?ScreenToClient@WWindow@@QAE?AUFPoint@@ABU2@@Z
 ?ScreenToClient@WWindow@@QAE?AUFRect@@ABU2@@Z
 ?ScrollCaret@WEdit@@QAEXXZ
 ?SelectTyping@WTerminal@@QAEXXZ
 ?SendToControl@FPropertyItem@@UAEXXZ
 ?Serialize@FCategoryItem@@UAEXAAVFArchive@@@Z
 ?Serialize@FObjectConfigItem@@UAEXAAVFArchive@@@Z
 ?Serialize@FObjectsItem@@UAEXAAVFArchive@@@Z
 ?Serialize@FPropertyItem@@UAEXAAVFArchive@@@Z
 ?Serialize@FPropertyItemBase@@UAEXAAVFArchive@@@Z
 ?Serialize@FTreeItem@@UAEXAAVFArchive@@@Z
 ?Serialize@WProperties@@UAEXAAVFArchive@@@Z
 ?Serialize@WTerminal@@UAEXPBDW4EName@@@Z
 ?Serialize@WWindow@@UAEXAAVFArchive@@@Z
 ?SetCurrent@WComboBox@@UAEXH@Z
 ?SetCurrent@WListBox@@QAEXHH@Z
 ?SetExec@WTerminal@@QAEXPAVFExec@@@Z
 ?SetFocusToItem@FPropertyItem@@UAEXXZ
 ?SetFocusToItem@FTreeItem@@UAEXXZ
 ?SetFont@WWindow@@QAEXPAUHFONT__@@@Z
 ?SetItemData@WListBox@@QAEXHPAX@Z
 ?SetItemFocus@WProperties@@UAEXH@Z
 ?SetModify@WEdit@@QAEXH@Z
 ?SetNotifyHook@WWindow@@QAEXPAVFNotifyHook@@@Z
 ?SetObjects@FObjectsItem@@UAEXPAPAVUObject@@H@Z
 ?SetPos@WTrackBar@@QAEXH@Z
 ?SetProgress@WProgressBar@@QAEXHH@Z
 ?SetProperty@FClassItem@@UAEXPAVUProperty@@HPBD@Z
 ?SetProperty@FObjectConfigItem@@UAEXPAVUProperty@@HPBD@Z
 ?SetProperty@FObjectsItem@@UAEXPAVUProperty@@HPBD@Z
 ?SetProperty@FTreeItem@@UAEXPAVUProperty@@HPBD@Z
 ?SetRange@WTrackBar@@QAEXHH@Z
 ?SetReadOnly@WEdit@@QAEXH@Z
 ?SetRedraw@WWindow@@QAEXH@Z
 ?SetSelected@FTreeItem@@UAEXH@Z
 ?SetSelectedText@WEdit@@QAEXPBD@Z
 ?SetSelection@WEdit@@QAEXHH@Z
 ?SetText@WLog@@UAEXPBD@Z
 ?SetText@WWindow@@UAEXPBD@Z
 ?SetTicFreq@WTrackBar@@QAEXH@Z
 ?SetTop@WListBox@@QAEXH@Z
 ?SetValue@FPropertyItem@@UAEXPBD@Z
 ?SetValue@FTreeItem@@UAEXPBD@Z
 ?SetValue@WProperties@@UAEXPBD@Z
 ?SetVisibleText@WButton@@QAEXPBD@Z
 ?Show@WWindow@@QAEXH@Z
 ?SnoopChar@FControlSnoop@@UAEXPAVWWindow@@H@Z
 ?SnoopChar@FPropertyItem@@UAEXPAVWWindow@@H@Z
 ?SnoopChar@FTreeItem@@UAEXPAVWWindow@@H@Z
 ?SnoopChar@WProperties@@UAEXPAVWWindow@@H@Z
 ?SnoopKeyDown@FControlSnoop@@UAEXPAVWWindow@@H@Z
 ?SnoopKeyDown@FTreeItem@@UAEXPAVWWindow@@H@Z
 ?SnoopKeyDown@WProperties@@UAEXPAVWWindow@@H@Z
 ?SnoopLeftMouseDown@FControlSnoop@@UAEXPAVWWindow@@UFPoint@@@Z
 ?SnoopLeftMouseDown@WProperties@@UAEXPAVWWindow@@UFPoint@@@Z
 ?SnoopRightMouseDown@FControlSnoop@@UAEXPAVWWindow@@UFPoint@@@Z
 ?SnoopRightMouseDown@WProperties@@UAEXPAVWWindow@@UFPoint@@@Z
 ?StaticWndProc@WWindow@@SGJPAUHWND__@@IIJ@Z
 ?SuperProc@WButton@@2P6GJPAUHWND__@@IIJ@ZA
 ?SuperProc@WComboBox@@2P6GJPAUHWND__@@IIJ@ZA
 ?SuperProc@WCoolButton@@2P6GJPAUHWND__@@IIJ@ZA
 ?SuperProc@WEdit@@2P6GJPAUHWND__@@IIJ@ZA
 ?SuperProc@WLabel@@2P6GJPAUHWND__@@IIJ@ZA
 ?SuperProc@WListBox@@2P6GJPAUHWND__@@IIJ@ZA
 ?SuperProc@WProgressBar@@2P6GJPAUHWND__@@IIJ@ZA
 ?SuperProc@WTrackBar@@2P6GJPAUHWND__@@IIJ@ZA
 ?SuperProc@WUrlButton@@2P6GJPAUHWND__@@IIJ@ZA
 ?ToggleDraw@WDragInterceptor@@UAEXPAUHDC__@@@Z
 ?ToggleExpansion@FTreeItem@@UAEXXZ
 ?ToggleMenuItem@@YAHPAUHMENU__@@H@Z
 ?TypeChar@WTerminal@@UAEXD@Z
 ?Unused@FCommandTarget@@UAEXXZ
 ?UpdateHighlight@WCoolButton@@QAEXH@Z
 ?UpdateTyping@WTerminal@@QAEXXZ
 ?WindowMessageMouseWheel@@3IA
 ?WindowMessageOpen@@3IA
 ?WndProc@WComboBox@@UAEJIIJ@Z
 ?WndProc@WItemBox@@UAEJIIJ@Z
 ?WndProc@WLog@@UAEJIIJ@Z
 ?WndProc@WWindow@@UAEJIIJ@Z
 ?_CloseWindow@WWindow@@QAEXXZ
 ?_DeleteWindows@WWindow@@2V?$TArray@PAVWWindow@@@@A
 ?_Windows@WWindow@@2V?$TArray@PAVWWindow@@@@A
 ?__FUNC_NAME__@?2???0FPropertyItem@@QAE@PAVWPropertiesBase@@PAVFTreeItem@@PAVUProperty@@VFName@@HH@Z@4QBDB
 ?__FUNC_NAME__@?2???0WProperties@@QAE@VFName@@PAVWWindow@@@Z@4QBDB
 ?__FUNC_NAME__@?2???1FTreeItem@@UAE@XZ@4QBDB
 ?__FUNC_NAME__@?2???1WWindow@@UAE@XZ@4QBDB
 ?__FUNC_NAME__@?2??AcceptFlags@FTreeItem@@UAEHK@Z@4QBDB
 ?__FUNC_NAME__@?2??AddButton@FTreeItem@@UAEXPBDUFDelegate@@@Z@4QBDB
 ?__FUNC_NAME__@?2??Advance@FPropertyItem@@UAEXXZ@4QBDB
 ?__FUNC_NAME__@?2??Advance@WWizardDialog@@UAEXPAVWWizardPage@@@Z@4QBDB
 ?__FUNC_NAME__@?2??BeginSplitterDrag@WProperties@@UAEXXZ@4QBDB
 ?__FUNC_NAME__@?2??Collapse@FCategoryItem@@UAEXXZ@4QBDB
 ?__FUNC_NAME__@?2??Collapse@FConfigItem@@UAEXXZ@4QBDB
 ?__FUNC_NAME__@?2??Collapse@FPropertyItem@@UAEXXZ@4QBDB
 ?__FUNC_NAME__@?2??Collapse@FPropertyItemBase@@UAEXXZ@4QBDB
 ?__FUNC_NAME__@?2??Collapse@FTreeItem@@UAEXXZ@4QBDB
 ?__FUNC_NAME__@?2??ComboSelectionEndCancel@FPropertyItem@@QAEXXZ@4QBDB
 ?__FUNC_NAME__@?2??ComboSelectionEndOk@FPropertyItem@@QAEXXZ@4QBDB
 ?__FUNC_NAME__@?2??DoDestroy@WProperties@@UAEXXZ@4QBDB
 ?__FUNC_NAME__@?2??DoDestroy@WWindow@@UAEXXZ@4QBDB
 ?__FUNC_NAME__@?2??DoModal@WDialog@@UAEHPAUHINSTANCE__@@@Z@4QBDB
 ?__FUNC_NAME__@?2??Draw@FHeaderItem@@UAEXPAUHDC__@@@Z@4QBDB
 ?__FUNC_NAME__@?2??Draw@FPropertyItem@@UAEXPAUHDC__@@@Z@4QBDB
 ?__FUNC_NAME__@?2??DrawTreeLines@FTreeItem@@UAEXPAUHDC__@@UFRect@@@Z@4QBDB
 ?__FUNC_NAME__@?2??EmptyChildren@FTreeItem@@QAEXXZ@4QBDB
 ?__FUNC_NAME__@?2??Expand@FCategoryItem@@UAEXXZ@4QBDB
 ?__FUNC_NAME__@?2??Expand@FClassItem@@UAEXXZ@4QBDB
 ?__FUNC_NAME__@?2??Expand@FConfigItem@@UAEXXZ@4QBDB
 ?__FUNC_NAME__@?2??Expand@FObjectConfigItem@@UAEXXZ@4QBDB
 ?__FUNC_NAME__@?2??Expand@FObjectsItem@@UAEXXZ@4QBDB
 ?__FUNC_NAME__@?2??Expand@FPropertyItem@@UAEXXZ@4QBDB
 ?__FUNC_NAME__@?2??Expand@FTreeItem@@UAEXXZ@4QBDB
 ?__FUNC_NAME__@?2??FindItemChecked@WListBox@@QAEHPBX@Z@4QBDB
 ?__FUNC_NAME__@?2??FindStringChecked@WListBox@@QAEHPBD@Z@4QBDB
 ?__FUNC_NAME__@?2??ForceRefresh@WProperties@@UAEXXZ@4QBDB
 ?__FUNC_NAME__@?2??GetAddress@FObjectsItem@@QAEPAEPAVUProperty@@PAEH@Z@4QBDB
 ?__FUNC_NAME__@?2??GetCaption@FCategoryItem@@UBE?AVFString@@XZ@4QBDB
 ?__FUNC_NAME__@?2??GetCaption@FConfigItem@@UBE?AVFString@@XZ@4QBDB
 ?__FUNC_NAME__@?2??GetCaption@FObjectsItem@@UBE?AVFString@@XZ@4QBDB
 ?__FUNC_NAME__@?2??GetCaption@FPropertyItem@@UBE?AVFString@@XZ@4QBDB
 ?__FUNC_NAME__@?2??GetCaption@FPropertyItemBase@@UBE?AVFString@@XZ@4QBDB
 ?__FUNC_NAME__@?2??GetExpanderRect@FTreeItem@@UAE?AUFRect@@XZ@4QBDB
 ?__FUNC_NAME__@?2??GetIndent@FTreeItem@@QAEHXZ@4QBDB
 ?__FUNC_NAME__@?2??GetIndentPixels@FTreeItem@@UAEHH@Z@4QBDB
 ?__FUNC_NAME__@?2??GetLength@WWindow@@UAEHXZ@4QBDB
 ?__FUNC_NAME__@?2??GetLineCount@WEdit@@QAEHXZ@4QBDB
 ?__FUNC_NAME__@?2??GetLineIndex@WEdit@@QAEHH@Z@4QBDB
 ?__FUNC_NAME__@?2??GetListItem@WPropertiesBase@@UAEPAVFTreeItem@@H@Z@4QBDB
 ?__FUNC_NAME__@?2??GetPropertyText@FPropertyItem@@QAEXPADPAE@Z@4QBDB
 ?__FUNC_NAME__@?2??GetReadAddress@FClassItem@@UAEPAEPAVUProperty@@H@Z@4QBDB
 ?__FUNC_NAME__@?2??GetReadAddress@FObjectConfigItem@@UAEPAEPAVUProperty@@H@Z@4QBDB
 ?__FUNC_NAME__@?2??GetReadAddress@FObjectsItem@@UAEPAEPAVUProperty@@H@Z@4QBDB
 ?__FUNC_NAME__@?2??GetReadAddress@FTreeItem@@UAEPAEPAVUProperty@@H@Z@4QBDB
 ?__FUNC_NAME__@?2??GetReadOnly@WEdit@@QAEHXZ@4QBDB
 ?__FUNC_NAME__@?2??GetRect@FTreeItem@@UAE?AUFRect@@XZ@4QBDB
 ?__FUNC_NAME__@?2??GetSelection@WEdit@@QAEXAAH0@Z@4QBDB
 ?__FUNC_NAME__@?2??GetStates@FPropertyItemBase@@UAEXAAV?$TArray@VFName@@@@@Z@4QBDB
 ?__FUNC_NAME__@?2??GetStates@FTreeItem@@UAEXAAV?$TArray@VFName@@@@@Z@4QBDB
 ?__FUNC_NAME__@?2??GetString@WComboBox@@UAE?AVFString@@H@Z@4QBDB
 ?__FUNC_NAME__@?2??GetString@WListBox@@QAE?AVFString@@H@Z@4QBDB
 ?__FUNC_NAME__@?2??GetText@WWindow@@UAE?AVFString@@XZ@4QBDB
 ?__FUNC_NAME__@?2??InsertItemAfter@WListBox@@QAEXPBX0@Z@4QBDB
 ?__FUNC_NAME__@?2??InsertStringAfter@WListBox@@QAEXPBD0@Z@4QBDB
 ?__FUNC_NAME__@?2??InterceptControlCommand@WButton@@UAEHIIJ@Z@4QBDB
 ?__FUNC_NAME__@?2??InterceptControlCommand@WComboBox@@UAEHIIJ@Z@4QBDB
 ?__FUNC_NAME__@?2??InterceptControlCommand@WEdit@@UAEHIIJ@Z@4QBDB
 ?__FUNC_NAME__@?2??InterceptControlCommand@WListBox@@UAEHIIJ@Z@4QBDB
 ?__FUNC_NAME__@?2??InterceptControlCommand@WTrackBar@@UAEHIIJ@Z@4QBDB
 ?__FUNC_NAME__@?2??LazyLoadClass@FObjectConfigItem@@QAEXXZ@4QBDB
 ?__FUNC_NAME__@?2??LoadLocalizedMenu@@YAPAUHMENU__@@PAUHINSTANCE__@@HPBD1@Z@4QBDB
 ?__FUNC_NAME__@?2??LocalizeText@WDialog@@UAEXPBD0@Z@4QBDB
 ?__FUNC_NAME__@?2??LocalizeTextEnumProc@WDialog@@SGHPAUHWND__@@J@Z@4QBDB
 ?__FUNC_NAME__@?2??MaybeDestroy@WWindow@@QAEXXZ@4QBDB
 ?__FUNC_NAME__@?2??OnActivate@WProperties@@UAEXH@Z@4QBDB
 ?__FUNC_NAME__@?2??OnArrayAdd@FPropertyItem@@QAEXXZ@4QBDB
 ?__FUNC_NAME__@?2??OnArrayDelete@FPropertyItem@@QAEXXZ@4QBDB
 ?__FUNC_NAME__@?2??OnArrayEmpty@FPropertyItem@@QAEXXZ@4QBDB
 ?__FUNC_NAME__@?2??OnArrayInsert@FPropertyItem@@QAEXXZ@4QBDB
 ?__FUNC_NAME__@?2??OnBack@WWizardDialog@@UAEXXZ@4QBDB
 ?__FUNC_NAME__@?2??OnBrowseButton@FPropertyItem@@QAEXXZ@4QBDB
 ?__FUNC_NAME__@?2??OnCancel@WWizardDialog@@UAEXXZ@4QBDB
 ?__FUNC_NAME__@?2??OnChooseColorButton@FPropertyItem@@QAEXXZ@4QBDB
 ?__FUNC_NAME__@?2??OnClearButton@FPropertyItem@@QAEXXZ@4QBDB
 ?__FUNC_NAME__@?2??OnClose@WLog@@UAEXXZ@4QBDB
 ?__FUNC_NAME__@?2??OnClose@WWizardDialog@@UAEXXZ@4QBDB
 ?__FUNC_NAME__@?2??OnCommand@WLog@@UAEXH@Z@4QBDB
 ?__FUNC_NAME__@?2??OnCopyData@WLog@@UAEXPAUHWND__@@PAUtagCOPYDATASTRUCT@@@Z@4QBDB
 ?__FUNC_NAME__@?2??OnCreate@WTerminal@@UAEXXZ@4QBDB
 ?__FUNC_NAME__@?2??OnDestroy@WLog@@UAEXXZ@4QBDB
 ?__FUNC_NAME__@?2??OnDestroy@WPasswordDialog@@UAEXXZ@4QBDB
 ?__FUNC_NAME__@?2??OnDestroy@WProperties@@UAEXXZ@4QBDB
 ?__FUNC_NAME__@?2??OnDestroy@WWindow@@UAEXXZ@4QBDB
 ?__FUNC_NAME__@?2??OnDestroy@WWizardDialog@@UAEXXZ@4QBDB
 ?__FUNC_NAME__@?2??OnDrawItem@WCoolButton@@UAEXPAUtagDRAWITEMSTRUCT@@@Z@4QBDB
 ?__FUNC_NAME__@?2??OnFinishSplitterDrag@WProperties@@UAEXPAVWDragInterceptor@@H@Z@4QBDB
 ?__FUNC_NAME__@?2??OnInitDialog@WDialog@@UAEXXZ@4QBDB
 ?__FUNC_NAME__@?2??OnInitDialog@WPasswordDialog@@UAEXXZ@4QBDB
 ?__FUNC_NAME__@?2??OnInitDialog@WTextScrollerDialog@@UAEXXZ@4QBDB
 ?__FUNC_NAME__@?2??OnInitDialog@WWizardDialog@@UAEXXZ@4QBDB
 ?__FUNC_NAME__@?2??OnItemDoubleClick@FPropertyItem@@UAEXXZ@4QBDB
 ?__FUNC_NAME__@?2??OnItemDoubleClick@FTreeItem@@UAEXXZ@4QBDB
 ?__FUNC_NAME__@?2??OnItemKillFocus@FPropertyItem@@UAEXH@Z@4QBDB
 ?__FUNC_NAME__@?2??OnItemKillFocus@FTreeItem@@UAEXH@Z@4QBDB
 ?__FUNC_NAME__@?2??OnItemLeftMouseDown@FPropertyItem@@UAEXUFPoint@@@Z@4QBDB
 ?__FUNC_NAME__@?2??OnItemLeftMouseDown@FTreeItem@@UAEXUFPoint@@@Z@4QBDB
 ?__FUNC_NAME__@?2??OnItemSetFocus@FPropertyItem@@UAEXXZ@4QBDB
 ?__FUNC_NAME__@?2??OnItemSetFocus@FTreeItem@@UAEXXZ@4QBDB
 ?__FUNC_NAME__@?2??OnMouseMove@WDragInterceptor@@UAEXKUFPoint@@@Z@4QBDB
 ?__FUNC_NAME__@?2??OnNext@WWizardDialog@@UAEXXZ@4QBDB
 ?__FUNC_NAME__@?2??OnReleaseCapture@WDragInterceptor@@UAEXXZ@4QBDB
 ?__FUNC_NAME__@?2??OnResetToDefaultsButton@FObjectConfigItem@@QAEXXZ@4QBDB
 ?__FUNC_NAME__@?2??OnSetCursor@FPropertyItem@@UAEHXZ@4QBDB
 ?__FUNC_NAME__@?2??OnSetCursor@WCoolButton@@UAEHXZ@4QBDB
 ?__FUNC_NAME__@?2??OnShowWindow@WLog@@UAEXH@Z@4QBDB
 ?__FUNC_NAME__@?2??OnSize@WProperties@@UAEXKHH@Z@4QBDB
 ?__FUNC_NAME__@?2??OnSize@WTerminal@@UAEXKHH@Z@4QBDB
 ?__FUNC_NAME__@?2??OnTimer@WCoolButton@@UAEXXZ@4QBDB
 ?__FUNC_NAME__@?2??OnTrackBarThumbPosition@FPropertyItem@@QAEXXZ@4QBDB
 ?__FUNC_NAME__@?2??OnTrackBarThumbTrack@FPropertyItem@@QAEXXZ@4QBDB
 ?__FUNC_NAME__@?2??OnUseCurrentButton@FPropertyItem@@QAEXXZ@4QBDB
 ?__FUNC_NAME__@?2??OpenChildWindow@WDialog@@QAEXHH@Z@4QBDB
 ?__FUNC_NAME__@?2??OpenChildWindow@WProperties@@QAEXH@Z@4QBDB
 ?__FUNC_NAME__@?2??OpenWindow@WButton@@QAEXHHHHHPBD@Z@4QBDB
 ?__FUNC_NAME__@?2??OpenWindow@WComboBox@@QAEXH@Z@4QBDB
 ?__FUNC_NAME__@?2??OpenWindow@WCoolButton@@QAEXHHHHHPBD@Z@4QBDB
 ?__FUNC_NAME__@?2??OpenWindow@WDragInterceptor@@UAEXXZ@4QBDB
 ?__FUNC_NAME__@?2??OpenWindow@WEdit@@QAEXHHH@Z@4QBDB
 ?__FUNC_NAME__@?2??OpenWindow@WLabel@@QAEXH@Z@4QBDB
 ?__FUNC_NAME__@?2??OpenWindow@WListBox@@QAEXHHHH@Z@4QBDB
 ?__FUNC_NAME__@?2??OpenWindow@WLog@@QAEXHH@Z@4QBDB
 ?__FUNC_NAME__@?2??OpenWindow@WProgressBar@@QAEXH@Z@4QBDB
 ?__FUNC_NAME__@?2??OpenWindow@WProperties@@QAEXPAUHWND__@@@Z@4QBDB
 ?__FUNC_NAME__@?2??OpenWindow@WTerminal@@QAEXHH@Z@4QBDB
 ?__FUNC_NAME__@?2??OpenWindow@WTrackBar@@QAEXH@Z@4QBDB
 ?__FUNC_NAME__@?2??Paste@WTerminal@@UAEXXZ@4QBDB
 ?__FUNC_NAME__@?2??PerformCreateWindowEx@WWindow@@QAEXKPBDKHHHHPAUHWND__@@PAUHMENU__@@PAUHINSTANCE__@@@Z@4QBDB
 ?__FUNC_NAME__@?2??ReceiveFromControl@FPropertyItem@@UAEXXZ@4QBDB
 ?__FUNC_NAME__@?2??Redraw@FTreeItem@@UAEXXZ@4QBDB
 ?__FUNC_NAME__@?2??RefreshPage@WWizardDialog@@UAEXXZ@4QBDB
 ?__FUNC_NAME__@?2??RegisterWindowClass@WControl@@SAP6GJPAUHWND__@@IIJ@ZPBD1@Z@4QBDB
 ?__FUNC_NAME__@?2??RegisterWindowClass@WWindow@@SAP6GJPAUHWND__@@IIJ@ZPBDK@Z@4QBDB
 ?__FUNC_NAME__@?2??ResizeList@WProperties@@UAEXXZ@4QBDB
 ?__FUNC_NAME__@?2??SelectTyping@WTerminal@@QAEXXZ@4QBDB
 ?__FUNC_NAME__@?2??SendToControl@FPropertyItem@@UAEXXZ@4QBDB
 ?__FUNC_NAME__@?2??Serialize@FCategoryItem@@UAEXAAVFArchive@@@Z@4QBDB
 ?__FUNC_NAME__@?2??Serialize@FObjectConfigItem@@UAEXAAVFArchive@@@Z@4QBDB
 ?__FUNC_NAME__@?2??Serialize@FObjectsItem@@UAEXAAVFArchive@@@Z@4QBDB
 ?__FUNC_NAME__@?2??Serialize@FPropertyItem@@UAEXAAVFArchive@@@Z@4QBDB
 ?__FUNC_NAME__@?2??Serialize@FPropertyItemBase@@UAEXAAVFArchive@@@Z@4QBDB
 ?__FUNC_NAME__@?2??Serialize@FTreeItem@@UAEXAAVFArchive@@@Z@4QBDB
 ?__FUNC_NAME__@?2??Serialize@WProperties@@UAEXAAVFArchive@@@Z@4QBDB
 ?__FUNC_NAME__@?2??Serialize@WTerminal@@UAEXPBDW4EName@@@Z@4QBDB
 ?__FUNC_NAME__@?2??Serialize@WWindow@@UAEXAAVFArchive@@@Z@4QBDB
 ?__FUNC_NAME__@?2??SetItemFocus@WProperties@@UAEXH@Z@4QBDB
 ?__FUNC_NAME__@?2??SetObjects@FObjectsItem@@UAEXPAPAVUObject@@H@Z@4QBDB
 ?__FUNC_NAME__@?2??SetProperty@FClassItem@@UAEXPAVUProperty@@HPBD@Z@4QBDB
 ?__FUNC_NAME__@?2??SetProperty@FObjectConfigItem@@UAEXPAVUProperty@@HPBD@Z@4QBDB
 ?__FUNC_NAME__@?2??SetProperty@FObjectsItem@@UAEXPAVUProperty@@HPBD@Z@4QBDB
 ?__FUNC_NAME__@?2??SetProperty@FTreeItem@@UAEXPAVUProperty@@HPBD@Z@4QBDB
 ?__FUNC_NAME__@?2??SetReadOnly@WEdit@@QAEXH@Z@4QBDB
 ?__FUNC_NAME__@?2??SetSelectedText@WEdit@@QAEXPBD@Z@4QBDB
 ?__FUNC_NAME__@?2??SetSelection@WEdit@@QAEXHH@Z@4QBDB
 ?__FUNC_NAME__@?2??SetText@WLog@@UAEXPBD@Z@4QBDB
 ?__FUNC_NAME__@?2??SetText@WWindow@@UAEXPBD@Z@4QBDB
 ?__FUNC_NAME__@?2??SetValue@FPropertyItem@@UAEXPBD@Z@4QBDB
 ?__FUNC_NAME__@?2??SetValue@WProperties@@UAEXPBD@Z@4QBDB
 ?__FUNC_NAME__@?2??SetVisibleText@WButton@@QAEXPBD@Z@4QBDB
 ?__FUNC_NAME__@?2??SnoopChar@FPropertyItem@@UAEXPAVWWindow@@H@Z@4QBDB
 ?__FUNC_NAME__@?2??SnoopChar@FTreeItem@@UAEXPAVWWindow@@H@Z@4QBDB
 ?__FUNC_NAME__@?2??SnoopChar@WProperties@@UAEXPAVWWindow@@H@Z@4QBDB
 ?__FUNC_NAME__@?2??SnoopLeftMouseDown@WProperties@@UAEXPAVWWindow@@UFPoint@@@Z@4QBDB
 ?__FUNC_NAME__@?2??SnoopRightMouseDown@WProperties@@UAEXPAVWWindow@@UFPoint@@@Z@4QBDB
 ?__FUNC_NAME__@?2??StaticWndProc@WWindow@@SGJPAUHWND__@@IIJ@Z@4QBDB
 ?__FUNC_NAME__@?2??ToggleExpansion@FTreeItem@@UAEXXZ@4QBDB
 ?__FUNC_NAME__@?2??TypeChar@WTerminal@@UAEXD@Z@4QBDB
 ?__FUNC_NAME__@?2??UpdateHighlight@WCoolButton@@QAEXH@Z@4QBDB
 ?__FUNC_NAME__@?2??UpdateTyping@WTerminal@@QAEXXZ@4QBDB
 ?__FUNC_NAME__@?2??WndProc@WLog@@UAEJIIJ@Z@4QBDB
 ?__FUNC_NAME__@?2??WndProc@WWindow@@UAEJIIJ@Z@4QBDB
 ?__FUNC_NAME__@?2??_CloseWindow@WWindow@@QAEXXZ@4QBDB
 ?acrCustClr@?3??OnChooseColorButton@FPropertyItem@@QAEXXZ@4PAKA
 ?hBrushBlack@@3PAUHBRUSH__@@A
 ?hBrushCurrent@@3PAUHBRUSH__@@A
 ?hBrushDark@@3PAUHBRUSH__@@A
 ?hBrushGrey@@3PAUHBRUSH__@@A
 ?hBrushHeadline@@3PAUHBRUSH__@@A
 ?hBrushOffWhite@@3PAUHBRUSH__@@A
 ?hBrushStipple@@3PAUHBRUSH__@@A
 ?hBrushWhite@@3PAUHBRUSH__@@A
 ?hFontHeadline@@3PAUHFONT__@@A
 ?hFontText@@3PAUHFONT__@@A
 ?hFontUrl@@3PAUHFONT__@@A
 ?hInstanceWindow@@3PAUHINSTANCE__@@A
 GPackage
 _DllMain@12
 autoclassUWindowManager
